***************************************************************************
Potential MBR at physical offset: 0x600
Disk Signature: d8-39-d9-39
Bootcode md5: c1ca166a3417427890520bbb18911b1f
Bootcode (FULL) md5: c0bf3a94515bbd70e5a0af82f1804d89
Disassembly of Bootable Code:
0000000600: 0000                             ADD [BX+SI], AL
0000000602: 0000                             ADD [BX+SI], AL
0000000604: 0000                             ADD [BX+SI], AL
0000000606: 0000                             ADD [BX+SI], AL
0000000608: 0000                             ADD [BX+SI], AL
000000060a: 0000                             ADD [BX+SI], AL
000000060c: 0000                             ADD [BX+SI], AL
000000060e: 0000                             ADD [BX+SI], AL
0000000610: 0000                             ADD [BX+SI], AL
0000000612: 0000                             ADD [BX+SI], AL
0000000614: 0000                             ADD [BX+SI], AL
0000000616: 0000                             ADD [BX+SI], AL
0000000618: 0000                             ADD [BX+SI], AL
000000061a: 00bdbe07                         ADD [DI+0x7be], BH
000000061e: b104                             MOV CL, 0x4
0000000620: 386e00                           CMP [BP+0x0], CH
0000000623: 7c09                             JL 0x2e
0000000625: 7513                             JNZ 0x3a
0000000627: 83c510                           ADD BP, 0x10
000000062a: e2f4                             LOOP 0x20
000000062c: cd18                             INT 0x18
000000062e: 8bf5                             MOV SI, BP
0000000630: 83c610                           ADD SI, 0x10
0000000633: 49                               DEC CX
0000000634: 7419                             JZ 0x4f
0000000636: 382c                             CMP [SI], CH
0000000638: 74f6                             JZ 0x30
000000063a: a0b507                           MOV AL, [0x7b5]
000000063d: b407                             MOV AH, 0x7
000000063f: 8bf0                             MOV SI, AX
0000000641: ac                               LODSB
0000000642: 3c00                             CMP AL, 0x0
0000000644: 74fc                             JZ 0x42
0000000646: bb0700                           MOV BX, 0x7
0000000649: b40e                             MOV AH, 0xe
000000064b: cd10                             INT 0x10
000000064d: ebf2                             JMP 0x41
000000064f: 884e10                           MOV [BP+0x10], CL
0000000652: e84600                           CALL 0x9b
0000000655: 732a                             JAE 0x81
0000000657: fe4610                           INC BYTE [BP+0x10]
000000065a: 807e040b                         CMP BYTE [BP+0x4], 0xb
000000065e: 740b                             JZ 0x6b
0000000660: 807e040c                         CMP BYTE [BP+0x4], 0xc
0000000664: 7405                             JZ 0x6b
0000000666: a0b607                           MOV AL, [0x7b6]
0000000669: 75d2                             JNZ 0x3d
000000066b: 80460206                         ADD BYTE [BP+0x2], 0x6
000000066f: 83460806                         ADD WORD [BP+0x8], 0x6
0000000673: 83560a00                         ADC WORD [BP+0xa], 0x0
0000000677: e82100                           CALL 0x9b
000000067a: 7305                             JAE 0x81
000000067c: a0b607                           MOV AL, [0x7b6]
000000067f: ebbc                             JMP 0x3d
0000000681: 813efe7d55aa                     CMP WORD [0x7dfe], 0xaa55
0000000687: 740b                             JZ 0x94
0000000689: 807e1000                         CMP BYTE [BP+0x10], 0x0
000000068d: 74c8                             JZ 0x57
000000068f: a0b707                           MOV AL, [0x7b7]
0000000692: eba9                             JMP 0x3d
0000000694: 8bfc                             MOV DI, SP
0000000696: 1e                               PUSH DS
0000000697: 57                               PUSH DI
0000000698: 8bf5                             MOV SI, BP
000000069a: cb                               RETF
000000069b: bf0500                           MOV DI, 0x5
000000069e: 8a5600                           MOV DL, [BP+0x0]
00000006a1: b408                             MOV AH, 0x8
00000006a3: cd13                             INT 0x13
00000006a5: 7223                             JB 0xca
00000006a7: 8ac1                             MOV AL, CL
00000006a9: 243f                             AND AL, 0x3f
00000006ab: 98                               CBW
00000006ac: 8ade                             MOV BL, DH
00000006ae: 8afc                             MOV BH, AH
00000006b0: 43                               INC BX
00000006b1: f7e3                             MUL BX
00000006b3: 8bd1                             MOV DX, CX
00000006b5: 86d6                             XCHG DH, DL
00000006b7: b106                             MOV CL, 0x6
00000006b9: d2ee                             SHR DH, CL
00000006bb: 42                               INC DX
00000006bc: f7e2                             MUL DX
00000006be: 39560a                           CMP [BP+0xa], DX
00000006c1: 7723                             JA 0xe6
00000006c3: 7205                             JB 0xca
00000006c5: 394608                           CMP [BP+0x8], AX
00000006c8: 731c                             JAE 0xe6
00000006ca: b80102                           MOV AX, 0x201
00000006cd: bb007c                           MOV BX, 0x7c00
00000006d0: 8b4e02                           MOV CX, [BP+0x2]
00000006d3: 8b5600                           MOV DX, [BP+0x0]
00000006d6: cd13                             INT 0x13
00000006d8: 7351                             JAE 0x12b
00000006da: 4f                               DEC DI
00000006db: 744e                             JZ 0x12b
00000006dd: 32e4                             XOR AH, AH
00000006df: 8a5600                           MOV DL, [BP+0x0]
00000006e2: cd13                             INT 0x13
00000006e4: ebe4                             JMP 0xca
00000006e6: 8a5600                           MOV DL, [BP+0x0]
00000006e9: 60                               PUSHA
00000006ea: bbaa55                           MOV BX, 0x55aa
00000006ed: b441                             MOV AH, 0x41
00000006ef: cd13                             INT 0x13
00000006f1: 7236                             JB 0x129
00000006f3: 81fb55aa                         CMP BX, 0xaa55
00000006f7: 7530                             JNZ 0x129
00000006f9: f6c101                           TEST CL, 0x1
00000006fc: 742b                             JZ 0x129
00000006fe: 61                               POPA
00000006ff: 60                               PUSHA
0000000700: 2417                             AND AL, 0x17
0000000702: 00c0                             ADD AL, AL
0000000704: 240f                             AND AL, 0xf
0000000706: 00c0                             ADD AL, AL
0000000708: 2413                             AND AL, 0x13
000000070a: 00c0                             ADD AL, AL
000000070c: 2425                             AND AL, 0x25
000000070e: 00c0                             ADD AL, AL
0000000710: 51                               PUSH CX
0000000711: 2600c0                           ADD AL, AL
0000000714: 51                               PUSH CX
0000000715: 3600c0                           ADD AL, AL
0000000718: 136161                           ADC SP, [BX+DI+0x61]
000000071b: 730e                             JAE 0x12b
000000071d: 4f                               DEC DI
000000071e: 740b                             JZ 0x12b
0000000720: 32e4                             XOR AH, AH
0000000722: 8a5600                           MOV DL, [BP+0x0]
0000000725: cd13                             INT 0x13
0000000727: ebd6                             JMP 0xff
0000000729: 61                               POPA
000000072a: f9                               STC
000000072b: c3                               RET

000000072c: 49 6e 76 61 6c 69 64 20 70 61 72 74 69 74 69 6f   Invalid.partitio
000000073c: 6e 20 74 61 00 f8 09 00 00 08 00 00 72 20 6c 6f   n.ta........r.lo
000000074c: 61 64 69 6e 67 20 6f 70 65 72 61 74 69 6e 67 20   ading.operating.
000000075c: 73 79 73 74 65 6d 00 4d 69 73 73 69 6e 67 20 6f   system.Missing.o
000000076c: 70 65 72 61 74 69 6e 67 20 73 79 73 74 65 6d 00   perating.system.
000000077c: 00 00 00 00 00 00 00 00 00 00 00 00 00 00 00 00   ................
000000078c: 00 00 00 00 00 00 00 00 00 00 00 00 00 00 00 00   ................
000000079c: 00 00 00 00 00 00 00 00 00 00 00 00 00 00 00 00   ................
00000007ac: 00 00 00 00 00 00 00 00 00 2c 44 63               .........,Dc

===== Partition Table #1 =====
Boot flag: 0x80 (Bootable)
Partition type: 0x7 (NTFS)
Starting Sector (LBA): 0x38 (56)
Starting CHS: Cylinder: 0 Head: 1 Sector: 1
Ending CHS: Cylinder: 1023 Head: 254 Sector: 56
Size in sectors: 0x17fb690 (25147024)

===== Partition Table #2 =====
Boot flag: 0x0 
Partition type: 0x0 (Empty)
Starting Sector (LBA): 0x0 (0)
Starting CHS: Cylinder: 0 Head: 0 Sector: 0
Ending CHS: Cylinder: 0 Head: 0 Sector: 0
Size in sectors: 0x0 (0)

===== Partition Table #3 =====
Boot flag: 0x0 
Partition type: 0x0 (Empty)
Starting Sector (LBA): 0x0 (0)
Starting CHS: Cylinder: 0 Head: 0 Sector: 0
Ending CHS: Cylinder: 0 Head: 0 Sector: 0
Size in sectors: 0x0 (0)

===== Partition Table #4 =====
Boot flag: 0x0 
Partition type: 0x0 (Empty)
Starting Sector (LBA): 0x0 (0)
Starting CHS: Cylinder: 0 Head: 0 Sector: 0
Ending CHS: Cylinder: 0 Head: 0 Sector: 0
Size in sectors: 0x0 (0)

***************************************************************************

***************************************************************************
Potential MBR at physical offset: 0x1de24bf
Disk Signature: e1-3c-c0-64
Bootcode md5: ade4f23ec7edab64cc4361cfc518b486
Bootcode (FULL) md5: 2618b6104875c575c96b552b79e8f487
Disassembly of Bootable Code:
0001de24bf: 028eaa3f                         ADD CL, [BP+0x3faa]
0001de24c3: 00723b                           ADD [BP+SI+0x3b], DH
0001de24c6: 00b24200                         ADD [BP+SI+0x42], DH
0001de24ca: 06                               PUSH ES
0001de24cb: 3a00                             CMP AL, [BX+SI]
0001de24cd: 06                               PUSH ES
0001de24ce: 44                               INC SP
0001de24cf: 2000                             AND [BX+SI], AL
0001de24d1: 033f                             ADD DI, [BX]
0001de24d3: 3104                             XOR [SI], AX
0001de24d5: 43                               INC BX
0001de24d6: 028b421d                         ADD CL, [BP+DI+0x1d42]
0001de24da: 005138                           ADD [BX+DI+0x38], DL
0001de24dd: 004701                           ADD [BX+0x1], AL
0001de24e0: 3101                             XOR [BX+DI], AX
0001de24e2: 193d                             SBB [DI], DI
0001de24e4: 042e                             ADD AL, 0x2e
0001de24e6: 0200                             ADD AL, [BX+SI]
0001de24e8: 0d0002                           OR AX, 0x200
0001de24eb: 50                               PUSH AX
0001de24ec: 07                               POP ES
0001de24ed: 005500                           ADD [DI+0x0], DL
0001de24f0: 20ee                             AND DH, CH
0001de24f2: 0008                             ADD [BX+SI], CL
0001de24f4: 00ff                             ADD BH, BH
0001de24f6: 0200                             ADD AL, [BX+SI]
0001de24f8: 820058                           ADD BYTE [BX+SI], 0x58
0001de24fb: 260014                           ADD [ES:SI], DL
0001de24fe: 006127                           ADD [BX+DI+0x27], AH
0001de2501: b53a                             MOV CH, 0x3a
0001de2503: 0c52                             OR AL, 0x52
0001de2505: 800408                           ADD BYTE [SI], 0x8
0001de2508: 8180295e008c                     ADD WORD [BX+SI+0x5e29], 0x8c00
0001de250e: 000c                             ADD [SI], CL
0001de2510: 50                               PUSH AX
0001de2511: 0007                             ADD [BX], AL
0001de2513: 1000                             ADC [BX+SI], AL
0001de2515: 802b81                           SUB BYTE [BP+DI], 0x81
0001de2518: 8c10                             MOV [BX+SI], SS
0001de251a: 0100                             ADD [BX+SI], AX
0001de251c: 50                               PUSH AX
0001de251d: 97                               XCHG DI, AX
0001de251e: 005d00                           ADD [DI+0x0], BL
0001de2521: 5e                               POP SI
0001de2522: 000ea800                         ADD [0xa8], CL
0001de2526: 57                               PUSH DI
0001de2527: 01810f80                         ADD [BX+DI-0x7ff1], AX
0001de252b: 803918                           CMP BYTE [BX+DI], 0x18
0001de252e: 86535a                           XCHG [BP+DI+0x5a], DL
0001de2531: 3880854c                         CMP [BX+SI+0x4c85], AL
0001de2535: 805c9392                         SBB BYTE [SI-0x6d], 0x92
0001de2539: 4c                               DEC SP
0001de253a: 80612e1a                         AND BYTE [BX+DI+0x2e], 0x1a
0001de253e: 00856301                         ADD [DI+0x163], AL
0001de2542: 802e022e04                       SUB BYTE [0x2e02], 0x4
0001de2547: 0000                             ADD [BX+SI], AL
0001de2549: 20c0                             AND AL, AL
0001de254b: 00c8                             ADD AL, CL
0001de254d: 800802                           OR BYTE [BX+SI], 0x2
0001de2550: 06                               PUSH ES
0001de2551: fc                               CLD
0001de2552: 006aaa                           ADD [BP+SI-0x56], CH
0001de2555: 820310                           ADD BYTE [BP+DI], 0x10
0001de2558: 80ad3080c8                       SUB BYTE [DI-0x7fd0], 0xc8
0001de255d: 818138058098                     ADD WORD [BX+DI+0x538], 0x9880
0001de2563: 43                               INC BX
0001de2564: 806b3c04                         SUB BYTE [BP+DI+0x3c], 0x4
0001de2568: 4b                               DEC BX
0001de2569: 0439                             ADD AL, 0x39
0001de256b: 37                               AAA
0001de256c: 802ea1a695                       SUB BYTE [0xa6a1], 0x95
0001de2571: d300                             ROL WORD [BX+SI], CL
0001de2573: 809601304d                       ADC BYTE [BP+0x3001], 0x4d
0001de2578: 0002                             ADD [BP+SI], AL
0001de257a: 53                               PUSH BX
0001de257b: 80f353                           XOR BL, 0x53
0001de257e: 006800                           ADD [BX+SI+0x0], CH
0001de2581: 6500a26c80                       ADD [GS:BP+SI-0x7f94], AH
0001de2586: 0020                             ADD [BX+SI], AH
0001de2588: 004440                           ADD [SI+0x40], AL
0001de258b: 0167c2                           ADD [BX-0x3e], SP
0001de258e: 1e                               PUSH DS
0001de258f: 1103                             ADC [BP+DI], AX
0001de2591: 0103                             ADD [BP+DI], AX
0001de2593: 0000                             ADD [BX+SI], AL
0001de2595: c0420700                         ROL BYTE [BP+SI+0x7], 0x0
0001de2599: 1435                             ADC AL, 0x35
0001de259b: 40                               INC AX
0001de259c: 0006c242                         ADD [0x42c2], AL
0001de25a0: 82480781                         OR BYTE [BX+SI+0x7], 0x81
0001de25a4: 0202                             ADD AL, [BP+SI]
0001de25a6: 50                               PUSH AX
0001de25a7: 0027                             ADD [BX], AH
0001de25a9: 0007                             ADD [BX], AL
0001de25ab: 00ce                             ADD DH, CL
0001de25ad: 0018                             ADD [BX+SI], BL
0001de25af: 0012                             ADD [BP+SI], DL
0001de25b1: e480                             IN AL, 0x80
0001de25b3: 03ff                             ADD DI, DI
0001de25b5: ffcb                             DEC BX
0001de25b7: 07                               POP ES
0001de25b8: 0324                             ADD SP, [SI]
0001de25ba: 0101                             ADD [BX+DI], AX
0001de25bc: c00f46                           ROR BYTE [BX], 0x46
0001de25bf: 00ea                             ADD DL, CH
0001de25c1: 000a                             ADD [BP+SI], CL
0001de25c3: 0030                             ADD [BX+SI], DH
0001de25c5: f5                               CMC
0001de25c6: c6                               DB 0xc6
0001de25c7: 4a                               DEC DX
0001de25c8: 1e                               PUSH DS
0001de25c9: c09240c032                       RCL BYTE [BP+SI-0x3fc0], 0x32
0001de25ce: c3                               RET

0001de25cf: 9b c5 4b 49 8d aa 3d 40 80 4e 40 39 3d 40 85 36   ..KI..=@.N@9=@.6
0001de25df: 40 0a ad 41 8f 3e 42 42 c3 8a 43 c0 06 32 c0 00   @..A.>BB..C..2..
0001de25ef: aa 31 c0 93 37 c2 07 34 40 02 3d c0 4b 10 4b 04   .1..7..4@.=.K.K.
0001de25ff: 45 04 4b 74 80 08 83 d1 c0 20 52 00 88 c0 6b ea   E.Kt......R...k.
0001de260f: c2 28 cf 73 80 95 00 51 00 60 00 10 fe 73 d7 80   .(.s...Q.`...s..
0001de261f: 17 84 00 c1 a5 78 c0 a5 18 40 78 01 a6 68 82 00   .....x...@x..h..
0001de262f: 2d c0 85 3e c0 00 51 c2 32 1d c2 36 4f 40 32 c1   -..>..Q.2..6O@2.
0001de263f: bc c1 cb 3b 04 4c f5 40 d1 3e c0 38 3d 40 36 c1   ...;.L.@.>.8=@6.
0001de264f: dc 41 d4 c1 3d f5 49 3a 2e c0 6f 1e 40 3d 45 ce   .A..=.I:..o.@=E.
0001de265f: 47 cb c7 12 a2 35 c0 11 43 04 49 40 52 35 40 13   G....5..C.I@R5@.
0001de266f: 55 cd 8d 4b c0 04 3a c0                           U..K..:.

===== Partition Table #1 =====
Boot flag: 0x4 
Partition type: 0x35 (Invalid)
Starting Sector (LBA): 0x19e16d2e (434203950)
Starting CHS: Cylinder: 787 Head: 78 Sector: 32
Ending CHS: Cylinder: 304 Head: 32 Sector: 13
Size in sectors: 0x38e024f6 (954213622)

===== Partition Table #2 =====
Boot flag: 0xe7 
Partition type: 0x12 (Invalid)
Starting Sector (LBA): 0xc5316d08 (3308350728)
Starting CHS: Cylinder: 224 Head: 108 Sector: 31
Ending CHS: Cylinder: 497 Head: 235 Sector: 57
Size in sectors: -0x1fd1949f (-533828767)

===== Partition Table #3 =====
Boot flag: 0x22 
Partition type: 0xe2 (Invalid)
Starting Sector (LBA): 0xa060e683 (2690705027)
Starting CHS: Cylinder: 52 Head: 14 Sector: 0
Ending CHS: Cylinder: 305 Head: 65 Sector: 35
Size in sectors: -0x37f53fd9 (-938819545)

===== Partition Table #4 =====
Boot flag: 0x80 (Bootable)
Partition type: 0xd8 (CP/M-86)
Starting Sector (LBA): 0x55e100e2 (1440809186)
Starting CHS: Cylinder: 552 Head: 17 Sector: 34
Ending CHS: Cylinder: 178 Head: 16 Sector: 1
Size in sectors: -0xfa5f70 (-16408432)

***************************************************************************

***************************************************************************
Potential MBR at physical offset: 0x2128000
Disk Signature: d8-39-d9-39
Bootcode md5: 5a1ba3e4e62296c3b4078ab7c40e144c
Bootcode (FULL) md5: d85be4880cde57aaf1c603a3a9e79c8c
Disassembly of Bootable Code:
0002128000: 33c0                             XOR AX, AX
0002128002: 8ed0                             MOV SS, AX
0002128004: bc007c                           MOV SP, 0x7c00
0002128007: fb                               STI
0002128008: 50                               PUSH AX
0002128009: 07                               POP ES
000212800a: 50                               PUSH AX
000212800b: 1f                               POP DS
000212800c: fc                               CLD
000212800d: be1b7c                           MOV SI, 0x7c1b
0002128010: 0010                             ADD [BX+SI], DL
0002128012: f1                               INT1
0002128013: 8157b9e501                       ADC WORD [BX-0x47], 0x1e5
0002128018: f3a4                             REP MOVSB
000212801a: cb                               RETF
000212801b: bdbe07                           MOV BP, 0x7be
000212801e: b104                             MOV CL, 0x4
0002128020: 386e00                           CMP [BP+0x0], CH
0002128023: 7c09                             JL 0x2e
0002128025: 7513                             JNZ 0x3a
0002128027: 83c510                           ADD BP, 0x10
000212802a: e2f4                             LOOP 0x20
000212802c: cd18                             INT 0x18
000212802e: 8bf5                             MOV SI, BP
0002128030: 83c610                           ADD SI, 0x10
0002128033: 49                               DEC CX
0002128034: 7419                             JZ 0x4f
0002128036: 382c                             CMP [SI], CH
0002128038: 74f6                             JZ 0x30
000212803a: a0b507                           MOV AL, [0x7b5]
000212803d: b407                             MOV AH, 0x7
000212803f: 8bf0                             MOV SI, AX
0002128041: ac                               LODSB
0002128042: 3c00                             CMP AL, 0x0
0002128044: 74fc                             JZ 0x42
0002128046: bb0700                           MOV BX, 0x7
0002128049: b40e                             MOV AH, 0xe
000212804b: cd10                             INT 0x10
000212804d: ebf2                             JMP 0x41
000212804f: 884e10                           MOV [BP+0x10], CL
0002128052: e84600                           CALL 0x9b
0002128055: 732a                             JAE 0x81
0002128057: fe4610                           INC BYTE [BP+0x10]
000212805a: 807e040b                         CMP BYTE [BP+0x4], 0xb
000212805e: 740b                             JZ 0x6b
0002128060: 807e040c                         CMP BYTE [BP+0x4], 0xc
0002128064: 7405                             JZ 0x6b
0002128066: a0b607                           MOV AL, [0x7b6]
0002128069: 75d2                             JNZ 0x3d
000212806b: 80460206                         ADD BYTE [BP+0x2], 0x6
000212806f: 83460806                         ADD WORD [BP+0x8], 0x6
0002128073: 83560a00                         ADC WORD [BP+0xa], 0x0
0002128077: e82100                           CALL 0x9b
000212807a: 7305                             JAE 0x81
000212807c: a0b607                           MOV AL, [0x7b6]
000212807f: ebbc                             JMP 0x3d
0002128081: 813efe7d55aa                     CMP WORD [0x7dfe], 0xaa55
0002128087: 740b                             JZ 0x94
0002128089: 807e1000                         CMP BYTE [BP+0x10], 0x0
000212808d: 74c8                             JZ 0x57
000212808f: a0b707                           MOV AL, [0x7b7]
0002128092: eba9                             JMP 0x3d
0002128094: 8bfc                             MOV DI, SP
0002128096: 1e                               PUSH DS
0002128097: 57                               PUSH DI
0002128098: 8bf5                             MOV SI, BP
000212809a: cb                               RETF
000212809b: bf0500                           MOV DI, 0x5
000212809e: 8a5600                           MOV DL, [BP+0x0]
00021280a1: b408                             MOV AH, 0x8
00021280a3: cd13                             INT 0x13
00021280a5: 7223                             JB 0xca
00021280a7: 8ac1                             MOV AL, CL
00021280a9: 243f                             AND AL, 0x3f
00021280ab: 98                               CBW
00021280ac: 8ade                             MOV BL, DH
00021280ae: 8afc                             MOV BH, AH
00021280b0: 43                               INC BX
00021280b1: f7e3                             MUL BX
00021280b3: 8bd1                             MOV DX, CX
00021280b5: 86d6                             XCHG DH, DL
00021280b7: b106                             MOV CL, 0x6
00021280b9: d2ee                             SHR DH, CL
00021280bb: 42                               INC DX
00021280bc: f7e2                             MUL DX
00021280be: 39560a                           CMP [BP+0xa], DX
00021280c1: 7723                             JA 0xe6
00021280c3: 7205                             JB 0xca
00021280c5: 394608                           CMP [BP+0x8], AX
00021280c8: 731c                             JAE 0xe6
00021280ca: b80102                           MOV AX, 0x201
00021280cd: bb007c                           MOV BX, 0x7c00
00021280d0: 8b4e02                           MOV CX, [BP+0x2]
00021280d3: 8b5600                           MOV DX, [BP+0x0]
00021280d6: cd13                             INT 0x13
00021280d8: 7351                             JAE 0x12b
00021280da: 4f                               DEC DI
00021280db: 744e                             JZ 0x12b
00021280dd: 32e4                             XOR AH, AH
00021280df: 8a5600                           MOV DL, [BP+0x0]
00021280e2: cd13                             INT 0x13
00021280e4: ebe4                             JMP 0xca
00021280e6: 8a5600                           MOV DL, [BP+0x0]
00021280e9: 60                               PUSHA
00021280ea: bbaa55                           MOV BX, 0x55aa
00021280ed: b441                             MOV AH, 0x41
00021280ef: cd13                             INT 0x13
00021280f1: 7236                             JB 0x129
00021280f3: 81fb55aa                         CMP BX, 0xaa55
00021280f7: 7530                             JNZ 0x129
00021280f9: f6c101                           TEST CL, 0x1
00021280fc: 742b                             JZ 0x129
00021280fe: 61                               POPA
00021280ff: 60                               PUSHA
0002128100: 6a00                             PUSH 0x0
0002128102: 6a00                             PUSH 0x0
0002128104: ff760a                           PUSH WORD [BP+0xa]
0002128107: ff7608                           PUSH WORD [BP+0x8]
000212810a: 6a00                             PUSH 0x0
000212810c: 68007c                           PUSH WORD 0x7c00
000212810f: 6a01                             PUSH 0x1
0002128111: 6a10                             PUSH 0x10
0002128113: b442                             MOV AH, 0x42
0002128115: 8bf4                             MOV SI, SP
0002128117: cd13                             INT 0x13
0002128119: 61                               POPA
000212811a: 61                               POPA
000212811b: 730e                             JAE 0x12b
000212811d: 4f                               DEC DI
000212811e: 740b                             JZ 0x12b
0002128120: 32e4                             XOR AH, AH
0002128122: 8a5600                           MOV DL, [BP+0x0]
0002128125: cd13                             INT 0x13
0002128127: ebd6                             JMP 0xff
0002128129: 61                               POPA
000212812a: f9                               STC
000212812b: c3                               RET

000212812c: 49 6e 76 61 6c 69 64 20 70 61 72 74 69 74 69 6f   Invalid.partitio
000212813c: 6e 20 74 61 62 6c 65 00 45 72 72 6f 72 20 6c 6f   n.table.Error.lo
000212814c: 61 64 69 6e 67 20 6f 70 65 72 61 74 69 6e 67 20   ading.operating.
000212815c: 73 79 73 74 65 6d 00 4d 69 73 73 69 6e 67 20 6f   system.Missing.o
000212816c: 70 65 72 61 74 69 6e 67 20 73 79 73 74 65 6d 00   perating.system.
000212817c: 00 00 00 00 00 00 00 00 00 00 00 00 00 00 00 00   ................
000212818c: 00 00 00 00 00 00 00 00 00 00 00 00 00 00 00 00   ................
000212819c: 00 00 00 00 00 00 00 00 00 00 00 00 00 00 00 00   ................
00021281ac: 00 00 00 00 00 00 00 00 00 2c 44 63               .........,Dc

===== Partition Table #1 =====
Boot flag: 0x80 (Bootable)
Partition type: 0x7 (NTFS)
Starting Sector (LBA): 0x38 (56)
Starting CHS: Cylinder: 0 Head: 1 Sector: 1
Ending CHS: Cylinder: 1023 Head: 254 Sector: 56
Size in sectors: 0x17fb690 (25147024)

===== Partition Table #2 =====
Boot flag: 0x0 
Partition type: 0x0 (Empty)
Starting Sector (LBA): 0x0 (0)
Starting CHS: Cylinder: 0 Head: 0 Sector: 0
Ending CHS: Cylinder: 0 Head: 0 Sector: 0
Size in sectors: 0x0 (0)

===== Partition Table #3 =====
Boot flag: 0x0 
Partition type: 0x0 (Empty)
Starting Sector (LBA): 0x0 (0)
Starting CHS: Cylinder: 0 Head: 0 Sector: 0
Ending CHS: Cylinder: 0 Head: 0 Sector: 0
Size in sectors: 0x0 (0)

===== Partition Table #4 =====
Boot flag: 0x0 
Partition type: 0x0 (Empty)
Starting Sector (LBA): 0x0 (0)
Starting CHS: Cylinder: 0 Head: 0 Sector: 0
Ending CHS: Cylinder: 0 Head: 0 Sector: 0
Size in sectors: 0x0 (0)

***************************************************************************

***************************************************************************
Potential MBR at physical offset: 0x251a910
Disk Signature: d8-39-d9-39
Bootcode md5: 3ae7f342ef60a8d755ff558b558fb906
Bootcode (FULL) md5: 2f2c2ddf057a4018f96caa324465a999
Disassembly of Bootable Code:
000251a910: e8a855                           CALL 0x55ab
000251a913: 80e8a8                           SUB AL, 0xa8
000251a916: 55                               PUSH BP
000251a917: 80500750                         ADC BYTE [BX+SI+0x7], 0x50
000251a91b: 1f                               POP DS
000251a91c: fc                               CLD
000251a91d: be1b7c                           MOV SI, 0x7c1b
000251a920: bf1b06                           MOV DI, 0x61b
000251a923: 50                               PUSH AX
000251a924: 57                               PUSH DI
000251a925: b9e501                           MOV CX, 0x1e5
000251a928: f3a4                             REP MOVSB
000251a92a: cb                               RETF
000251a92b: bdbe07                           MOV BP, 0x7be
000251a92e: b104                             MOV CL, 0x4
000251a930: 386e00                           CMP [BP+0x0], CH
000251a933: 7c09                             JL 0x2e
000251a935: 7513                             JNZ 0x3a
000251a937: 83c510                           ADD BP, 0x10
000251a93a: e2f4                             LOOP 0x20
000251a93c: cd18                             INT 0x18
000251a93e: 8bf5                             MOV SI, BP
000251a940: 83c610                           ADD SI, 0x10
000251a943: 49                               DEC CX
000251a944: 7419                             JZ 0x4f
000251a946: 382c                             CMP [SI], CH
000251a948: 74f6                             JZ 0x30
000251a94a: a0b507                           MOV AL, [0x7b5]
000251a94d: b407                             MOV AH, 0x7
000251a94f: 8bf0                             MOV SI, AX
000251a951: ac                               LODSB
000251a952: 3c00                             CMP AL, 0x0
000251a954: 74fc                             JZ 0x42
000251a956: bb0700                           MOV BX, 0x7
000251a959: b40e                             MOV AH, 0xe
000251a95b: cd10                             INT 0x10
000251a95d: ebf2                             JMP 0x41
000251a95f: 884e10                           MOV [BP+0x10], CL
000251a962: e84600                           CALL 0x9b
000251a965: 732a                             JAE 0x81
000251a967: fe4610                           INC BYTE [BP+0x10]
000251a96a: 807e040b                         CMP BYTE [BP+0x4], 0xb
000251a96e: 740b                             JZ 0x6b
000251a970: 807e040c                         CMP BYTE [BP+0x4], 0xc
000251a974: 7405                             JZ 0x6b
000251a976: a0b607                           MOV AL, [0x7b6]
000251a979: 75d2                             JNZ 0x3d
000251a97b: 80460206                         ADD BYTE [BP+0x2], 0x6
000251a97f: 83460806                         ADD WORD [BP+0x8], 0x6
000251a983: 83560a00                         ADC WORD [BP+0xa], 0x0
000251a987: e82100                           CALL 0x9b
000251a98a: 7305                             JAE 0x81
000251a98c: a0b607                           MOV AL, [0x7b6]
000251a98f: ebbc                             JMP 0x3d
000251a991: 813efe7d55aa                     CMP WORD [0x7dfe], 0xaa55
000251a997: 740b                             JZ 0x94
000251a999: 807e1000                         CMP BYTE [BP+0x10], 0x0
000251a99d: 74c8                             JZ 0x57
000251a99f: a0b707                           MOV AL, [0x7b7]
000251a9a2: eba9                             JMP 0x3d
000251a9a4: 8bfc                             MOV DI, SP
000251a9a6: 1e                               PUSH DS
000251a9a7: 57                               PUSH DI
000251a9a8: 8bf5                             MOV SI, BP
000251a9aa: cb                               RETF
000251a9ab: bf0500                           MOV DI, 0x5
000251a9ae: 8a5600                           MOV DL, [BP+0x0]
000251a9b1: b408                             MOV AH, 0x8
000251a9b3: cd13                             INT 0x13
000251a9b5: 7223                             JB 0xca
000251a9b7: 8ac1                             MOV AL, CL
000251a9b9: 243f                             AND AL, 0x3f
000251a9bb: 98                               CBW
000251a9bc: 8ade                             MOV BL, DH
000251a9be: 8afc                             MOV BH, AH
000251a9c0: 43                               INC BX
000251a9c1: f7e3                             MUL BX
000251a9c3: 8bd1                             MOV DX, CX
000251a9c5: 86d6                             XCHG DH, DL
000251a9c7: b106                             MOV CL, 0x6
000251a9c9: d2ee                             SHR DH, CL
000251a9cb: 42                               INC DX
000251a9cc: f7e2                             MUL DX
000251a9ce: 39560a                           CMP [BP+0xa], DX
000251a9d1: 7723                             JA 0xe6
000251a9d3: 7205                             JB 0xca
000251a9d5: 394608                           CMP [BP+0x8], AX
000251a9d8: 731c                             JAE 0xe6
000251a9da: b80102                           MOV AX, 0x201
000251a9dd: bb007c                           MOV BX, 0x7c00
000251a9e0: 8b4e02                           MOV CX, [BP+0x2]
000251a9e3: 8b5600                           MOV DX, [BP+0x0]
000251a9e6: cd13                             INT 0x13
000251a9e8: 7351                             JAE 0x12b
000251a9ea: 4f                               DEC DI
000251a9eb: 744e                             JZ 0x12b
000251a9ed: 32e4                             XOR AH, AH
000251a9ef: 8a5600                           MOV DL, [BP+0x0]
000251a9f2: cd13                             INT 0x13
000251a9f4: ebe4                             JMP 0xca
000251a9f6: 8a5600                           MOV DL, [BP+0x0]
000251a9f9: 60                               PUSHA
000251a9fa: bbaa55                           MOV BX, 0x55aa
000251a9fd: b441                             MOV AH, 0x41
000251a9ff: cd13                             INT 0x13
000251aa01: 7236                             JB 0x129
000251aa03: 81fb55aa                         CMP BX, 0xaa55
000251aa07: 7530                             JNZ 0x129
000251aa09: f6c101                           TEST CL, 0x1
000251aa0c: 742b                             JZ 0x129
000251aa0e: 61                               POPA
000251aa0f: 60                               PUSHA
000251aa10: 6a00                             PUSH 0x0
000251aa12: 6a00                             PUSH 0x0
000251aa14: ff760a                           PUSH WORD [BP+0xa]
000251aa17: ff7608                           PUSH WORD [BP+0x8]
000251aa1a: 6a00                             PUSH 0x0
000251aa1c: 68007c                           PUSH WORD 0x7c00
000251aa1f: 6a01                             PUSH 0x1
000251aa21: 6a10                             PUSH 0x10
000251aa23: b442                             MOV AH, 0x42
000251aa25: 8bf4                             MOV SI, SP
000251aa27: cd13                             INT 0x13
000251aa29: 61                               POPA
000251aa2a: 61                               POPA
000251aa2b: 730e                             JAE 0x12b
000251aa2d: 4f                               DEC DI
000251aa2e: 740b                             JZ 0x12b
000251aa30: 32e4                             XOR AH, AH
000251aa32: 8a5600                           MOV DL, [BP+0x0]
000251aa35: cd13                             INT 0x13
000251aa37: ebd6                             JMP 0xff
000251aa39: 61                               POPA
000251aa3a: f9                               STC
000251aa3b: c3                               RET

000251aa3c: 49 6e 76 61 6c 69 64 20 70 61 72 74 69 74 69 6f   Invalid.partitio
000251aa4c: 6e 20 74 61 62 6c 65 00 45 72 72 6f 72 20 6c 6f   n.table.Error.lo
000251aa5c: 61 64 69 6e 67 20 6f 70 65 72 61 74 69 6e 67 20   ading.operating.
000251aa6c: 73 79 73 74 65 6d 00 4d 69 73 73 69 6e 67 20 6f   system.Missing.o
000251aa7c: 70 65 72 61 74 69 6e 67 20 73 79 73 74 65 6d 00   perating.system.
000251aa8c: 00 00 00 00 00 00 00 00 00 00 00 00 00 00 00 00   ................
000251aa9c: 00 00 00 00 00 00 00 00 00 00 00 00 00 00 00 00   ................
000251aaac: 00 00 00 00 00 00 00 00 00 00 00 00 00 00 00 00   ................
000251aabc: 00 00 00 00 00 00 00 00 00 2c 44 63               .........,Dc

===== Partition Table #1 =====
Boot flag: 0x80 (Bootable)
Partition type: 0x7 (NTFS)
Starting Sector (LBA): 0x38 (56)
Starting CHS: Cylinder: 0 Head: 1 Sector: 1
Ending CHS: Cylinder: 1023 Head: 254 Sector: 56
Size in sectors: 0x17fb690 (25147024)

===== Partition Table #2 =====
Boot flag: 0x0 
Partition type: 0x0 (Empty)
Starting Sector (LBA): 0x0 (0)
Starting CHS: Cylinder: 0 Head: 0 Sector: 0
Ending CHS: Cylinder: 0 Head: 0 Sector: 0
Size in sectors: 0x0 (0)

===== Partition Table #3 =====
Boot flag: 0x0 
Partition type: 0x0 (Empty)
Starting Sector (LBA): 0x0 (0)
Starting CHS: Cylinder: 0 Head: 0 Sector: 0
Ending CHS: Cylinder: 0 Head: 0 Sector: 0
Size in sectors: 0x0 (0)

===== Partition Table #4 =====
Boot flag: 0x0 
Partition type: 0x0 (Empty)
Starting Sector (LBA): 0x0 (0)
Starting CHS: Cylinder: 0 Head: 0 Sector: 0
Ending CHS: Cylinder: 0 Head: 0 Sector: 0
Size in sectors: 0x0 (0)

***************************************************************************

***************************************************************************
Potential MBR at physical offset: 0x252a000
Disk Signature: d8-39-d9-39
Bootcode md5: be3ac8b44359abb47ee218bf86601485
Bootcode (FULL) md5: d246f522d4a84b7502a7a33ed9304728
Disassembly of Bootable Code:
000252a000: 33c0                             XOR AX, AX
000252a002: 8ed0                             MOV SS, AX
000252a004: bc007c                           MOV SP, 0x7c00
000252a007: fb                               STI
000252a008: 50                               PUSH AX
000252a009: 07                               POP ES
000252a00a: 50                               PUSH AX
000252a00b: 1f                               POP DS
000252a00c: fc                               CLD
000252a00d: be1b7c                           MOV SI, 0x7c1b
000252a010: 00a03182                         ADD [BX+SI-0x7dcf], AH
000252a014: 57                               PUSH DI
000252a015: b9e501                           MOV CX, 0x1e5
000252a018: f3a4                             REP MOVSB
000252a01a: cb                               RETF
000252a01b: bdbe07                           MOV BP, 0x7be
000252a01e: b104                             MOV CL, 0x4
000252a020: 386e00                           CMP [BP+0x0], CH
000252a023: 7c09                             JL 0x2e
000252a025: 7513                             JNZ 0x3a
000252a027: 83c510                           ADD BP, 0x10
000252a02a: e2f4                             LOOP 0x20
000252a02c: cd18                             INT 0x18
000252a02e: 8bf5                             MOV SI, BP
000252a030: 83c610                           ADD SI, 0x10
000252a033: 49                               DEC CX
000252a034: 7419                             JZ 0x4f
000252a036: 382c                             CMP [SI], CH
000252a038: 74f6                             JZ 0x30
000252a03a: a0b507                           MOV AL, [0x7b5]
000252a03d: b407                             MOV AH, 0x7
000252a03f: 8bf0                             MOV SI, AX
000252a041: ac                               LODSB
000252a042: 3c00                             CMP AL, 0x0
000252a044: 74fc                             JZ 0x42
000252a046: bb0700                           MOV BX, 0x7
000252a049: b40e                             MOV AH, 0xe
000252a04b: cd10                             INT 0x10
000252a04d: ebf2                             JMP 0x41
000252a04f: 884e10                           MOV [BP+0x10], CL
000252a052: e84600                           CALL 0x9b
000252a055: 732a                             JAE 0x81
000252a057: fe4610                           INC BYTE [BP+0x10]
000252a05a: 807e040b                         CMP BYTE [BP+0x4], 0xb
000252a05e: 740b                             JZ 0x6b
000252a060: 807e040c                         CMP BYTE [BP+0x4], 0xc
000252a064: 7405                             JZ 0x6b
000252a066: a0b607                           MOV AL, [0x7b6]
000252a069: 75d2                             JNZ 0x3d
000252a06b: 80460206                         ADD BYTE [BP+0x2], 0x6
000252a06f: 83460806                         ADD WORD [BP+0x8], 0x6
000252a073: 83560a00                         ADC WORD [BP+0xa], 0x0
000252a077: e82100                           CALL 0x9b
000252a07a: 7305                             JAE 0x81
000252a07c: a0b607                           MOV AL, [0x7b6]
000252a07f: ebbc                             JMP 0x3d
000252a081: 813efe7d55aa                     CMP WORD [0x7dfe], 0xaa55
000252a087: 740b                             JZ 0x94
000252a089: 807e1000                         CMP BYTE [BP+0x10], 0x0
000252a08d: 74c8                             JZ 0x57
000252a08f: a0b707                           MOV AL, [0x7b7]
000252a092: eba9                             JMP 0x3d
000252a094: 8bfc                             MOV DI, SP
000252a096: 1e                               PUSH DS
000252a097: 57                               PUSH DI
000252a098: 8bf5                             MOV SI, BP
000252a09a: cb                               RETF
000252a09b: bf0500                           MOV DI, 0x5
000252a09e: 8a5600                           MOV DL, [BP+0x0]
000252a0a1: b408                             MOV AH, 0x8
000252a0a3: cd13                             INT 0x13
000252a0a5: 7223                             JB 0xca
000252a0a7: 8ac1                             MOV AL, CL
000252a0a9: 243f                             AND AL, 0x3f
000252a0ab: 98                               CBW
000252a0ac: 8ade                             MOV BL, DH
000252a0ae: 8afc                             MOV BH, AH
000252a0b0: 43                               INC BX
000252a0b1: f7e3                             MUL BX
000252a0b3: 8bd1                             MOV DX, CX
000252a0b5: 86d6                             XCHG DH, DL
000252a0b7: b106                             MOV CL, 0x6
000252a0b9: d2ee                             SHR DH, CL
000252a0bb: 42                               INC DX
000252a0bc: f7e2                             MUL DX
000252a0be: 39560a                           CMP [BP+0xa], DX
000252a0c1: 7723                             JA 0xe6
000252a0c3: 7205                             JB 0xca
000252a0c5: 394608                           CMP [BP+0x8], AX
000252a0c8: 731c                             JAE 0xe6
000252a0ca: b80102                           MOV AX, 0x201
000252a0cd: bb007c                           MOV BX, 0x7c00
000252a0d0: 8b4e02                           MOV CX, [BP+0x2]
000252a0d3: 8b5600                           MOV DX, [BP+0x0]
000252a0d6: cd13                             INT 0x13
000252a0d8: 7351                             JAE 0x12b
000252a0da: 4f                               DEC DI
000252a0db: 744e                             JZ 0x12b
000252a0dd: 32e4                             XOR AH, AH
000252a0df: 8a5600                           MOV DL, [BP+0x0]
000252a0e2: cd13                             INT 0x13
000252a0e4: ebe4                             JMP 0xca
000252a0e6: 8a5600                           MOV DL, [BP+0x0]
000252a0e9: 60                               PUSHA
000252a0ea: bbaa55                           MOV BX, 0x55aa
000252a0ed: b441                             MOV AH, 0x41
000252a0ef: cd13                             INT 0x13
000252a0f1: 7236                             JB 0x129
000252a0f3: 81fb55aa                         CMP BX, 0xaa55
000252a0f7: 7530                             JNZ 0x129
000252a0f9: f6c101                           TEST CL, 0x1
000252a0fc: 742b                             JZ 0x129
000252a0fe: 61                               POPA
000252a0ff: 60                               PUSHA
000252a100: 6a00                             PUSH 0x0
000252a102: 6a00                             PUSH 0x0
000252a104: ff760a                           PUSH WORD [BP+0xa]
000252a107: ff7608                           PUSH WORD [BP+0x8]
000252a10a: 6a00                             PUSH 0x0
000252a10c: 68007c                           PUSH WORD 0x7c00
000252a10f: 6a01                             PUSH 0x1
000252a111: 6a10                             PUSH 0x10
000252a113: b442                             MOV AH, 0x42
000252a115: 8bf4                             MOV SI, SP
000252a117: cd13                             INT 0x13
000252a119: 61                               POPA
000252a11a: 61                               POPA
000252a11b: 730e                             JAE 0x12b
000252a11d: 4f                               DEC DI
000252a11e: 740b                             JZ 0x12b
000252a120: 32e4                             XOR AH, AH
000252a122: 8a5600                           MOV DL, [BP+0x0]
000252a125: cd13                             INT 0x13
000252a127: ebd6                             JMP 0xff
000252a129: 61                               POPA
000252a12a: f9                               STC
000252a12b: c3                               RET

000252a12c: 49 6e 76 61 6c 69 64 20 70 61 72 74 69 74 69 6f   Invalid.partitio
000252a13c: 6e 20 74 61 62 6c 65 00 45 72 72 6f 72 20 6c 6f   n.table.Error.lo
000252a14c: 61 64 69 6e 67 20 6f 70 65 72 61 74 69 6e 67 20   ading.operating.
000252a15c: 73 79 73 74 65 6d 00 4d 69 73 73 69 6e 67 20 6f   system.Missing.o
000252a16c: 70 65 72 61 74 69 6e 67 20 73 79 73 74 65 6d 00   perating.system.
000252a17c: 00 00 00 00 00 00 00 00 00 00 00 00 00 00 00 00   ................
000252a18c: 00 00 00 00 00 00 00 00 00 00 00 00 00 00 00 00   ................
000252a19c: 00 00 00 00 00 00 00 00 00 00 00 00 00 00 00 00   ................
000252a1ac: 00 00 00 00 00 00 00 00 00 2c 44 63               .........,Dc

===== Partition Table #1 =====
Boot flag: 0x80 (Bootable)
Partition type: 0x7 (NTFS)
Starting Sector (LBA): 0x38 (56)
Starting CHS: Cylinder: 0 Head: 1 Sector: 1
Ending CHS: Cylinder: 1023 Head: 254 Sector: 56
Size in sectors: 0x17fb690 (25147024)

===== Partition Table #2 =====
Boot flag: 0x0 
Partition type: 0x0 (Empty)
Starting Sector (LBA): 0x0 (0)
Starting CHS: Cylinder: 0 Head: 0 Sector: 0
Ending CHS: Cylinder: 0 Head: 0 Sector: 0
Size in sectors: 0x0 (0)

===== Partition Table #3 =====
Boot flag: 0x0 
Partition type: 0x0 (Empty)
Starting Sector (LBA): 0x0 (0)
Starting CHS: Cylinder: 0 Head: 0 Sector: 0
Ending CHS: Cylinder: 0 Head: 0 Sector: 0
Size in sectors: 0x0 (0)

===== Partition Table #4 =====
Boot flag: 0x0 
Partition type: 0x0 (Empty)
Starting Sector (LBA): 0x0 (0)
Starting CHS: Cylinder: 0 Head: 0 Sector: 0
Ending CHS: Cylinder: 0 Head: 0 Sector: 0
Size in sectors: 0x0 (0)

***************************************************************************

***************************************************************************
Potential MBR at physical offset: 0x518b600
Disk Signature: d8-39-d9-39
Bootcode md5: cb5fcf7335c7761c14af14684c2be95a
Bootcode (FULL) md5: 883f40c702cadf3aee6f8892dafb2555
Disassembly of Bootable Code:
000518b600: 0000                             ADD [BX+SI], AL
000518b602: 0000                             ADD [BX+SI], AL
000518b604: 0000                             ADD [BX+SI], AL
000518b606: 0000                             ADD [BX+SI], AL
000518b608: 0000                             ADD [BX+SI], AL
000518b60a: 0000                             ADD [BX+SI], AL
000518b60c: 0000                             ADD [BX+SI], AL
000518b60e: 0000                             ADD [BX+SI], AL
000518b610: 0000                             ADD [BX+SI], AL
000518b612: 0000                             ADD [BX+SI], AL
000518b614: 0000                             ADD [BX+SI], AL
000518b616: 0000                             ADD [BX+SI], AL
000518b618: 0000                             ADD [BX+SI], AL
000518b61a: 00bdbe07                         ADD [DI+0x7be], BH
000518b61e: b104                             MOV CL, 0x4
000518b620: 386e00                           CMP [BP+0x0], CH
000518b623: 7c09                             JL 0x2e
000518b625: 7513                             JNZ 0x3a
000518b627: 83c510                           ADD BP, 0x10
000518b62a: e2f4                             LOOP 0x20
000518b62c: cd18                             INT 0x18
000518b62e: 8bf5                             MOV SI, BP
000518b630: 83c610                           ADD SI, 0x10
000518b633: 49                               DEC CX
000518b634: 7419                             JZ 0x4f
000518b636: 382c                             CMP [SI], CH
000518b638: 74f6                             JZ 0x30
000518b63a: a0b507                           MOV AL, [0x7b5]
000518b63d: b407                             MOV AH, 0x7
000518b63f: 8bf0                             MOV SI, AX
000518b641: ac                               LODSB
000518b642: 3c00                             CMP AL, 0x0
000518b644: 74fc                             JZ 0x42
000518b646: bb0700                           MOV BX, 0x7
000518b649: b40e                             MOV AH, 0xe
000518b64b: cd10                             INT 0x10
000518b64d: ebf2                             JMP 0x41
000518b64f: 884e10                           MOV [BP+0x10], CL
000518b652: e84600                           CALL 0x9b
000518b655: 732a                             JAE 0x81
000518b657: fe4610                           INC BYTE [BP+0x10]
000518b65a: 807e040b                         CMP BYTE [BP+0x4], 0xb
000518b65e: 740b                             JZ 0x6b
000518b660: 807e040c                         CMP BYTE [BP+0x4], 0xc
000518b664: 7405                             JZ 0x6b
000518b666: a0b607                           MOV AL, [0x7b6]
000518b669: 75d2                             JNZ 0x3d
000518b66b: 80460206                         ADD BYTE [BP+0x2], 0x6
000518b66f: 83460806                         ADD WORD [BP+0x8], 0x6
000518b673: 83560a00                         ADC WORD [BP+0xa], 0x0
000518b677: e82100                           CALL 0x9b
000518b67a: 7305                             JAE 0x81
000518b67c: a0b607                           MOV AL, [0x7b6]
000518b67f: ebbc                             JMP 0x3d
000518b681: 813efe7d55aa                     CMP WORD [0x7dfe], 0xaa55
000518b687: 740b                             JZ 0x94
000518b689: 807e1000                         CMP BYTE [BP+0x10], 0x0
000518b68d: 74c8                             JZ 0x57
000518b68f: a0b707                           MOV AL, [0x7b7]
000518b692: eba9                             JMP 0x3d
000518b694: 8bfc                             MOV DI, SP
000518b696: 1e                               PUSH DS
000518b697: 57                               PUSH DI
000518b698: 8bf5                             MOV SI, BP
000518b69a: cb                               RETF
000518b69b: bf0500                           MOV DI, 0x5
000518b69e: 8a5600                           MOV DL, [BP+0x0]
000518b6a1: b408                             MOV AH, 0x8
000518b6a3: cd13                             INT 0x13
000518b6a5: 7223                             JB 0xca
000518b6a7: 8ac1                             MOV AL, CL
000518b6a9: 243f                             AND AL, 0x3f
000518b6ab: 98                               CBW
000518b6ac: 8ade                             MOV BL, DH
000518b6ae: 8afc                             MOV BH, AH
000518b6b0: 43                               INC BX
000518b6b1: f7e3                             MUL BX
000518b6b3: 8bd1                             MOV DX, CX
000518b6b5: 86d6                             XCHG DH, DL
000518b6b7: b106                             MOV CL, 0x6
000518b6b9: d2ee                             SHR DH, CL
000518b6bb: 42                               INC DX
000518b6bc: f7e2                             MUL DX
000518b6be: 39560a                           CMP [BP+0xa], DX
000518b6c1: 7723                             JA 0xe6
000518b6c3: 7205                             JB 0xca
000518b6c5: 394608                           CMP [BP+0x8], AX
000518b6c8: 731c                             JAE 0xe6
000518b6ca: b80102                           MOV AX, 0x201
000518b6cd: bb007c                           MOV BX, 0x7c00
000518b6d0: 8b4e02                           MOV CX, [BP+0x2]
000518b6d3: 8b5600                           MOV DX, [BP+0x0]
000518b6d6: cd13                             INT 0x13
000518b6d8: 7351                             JAE 0x12b
000518b6da: 4f                               DEC DI
000518b6db: 744e                             JZ 0x12b
000518b6dd: 32e4                             XOR AH, AH
000518b6df: 8a5600                           MOV DL, [BP+0x0]
000518b6e2: cd13                             INT 0x13
000518b6e4: ebe4                             JMP 0xca
000518b6e6: 8a5600                           MOV DL, [BP+0x0]
000518b6e9: 60                               PUSHA
000518b6ea: bbaa55                           MOV BX, 0x55aa
000518b6ed: b441                             MOV AH, 0x41
000518b6ef: cd13                             INT 0x13
000518b6f1: 7236                             JB 0x129
000518b6f3: 81fb55aa                         CMP BX, 0xaa55
000518b6f7: 7530                             JNZ 0x129
000518b6f9: f6c101                           TEST CL, 0x1
000518b6fc: 742b                             JZ 0x129
000518b6fe: 61                               POPA
000518b6ff: 60                               PUSHA
000518b700: 2417                             AND AL, 0x17
000518b702: 00c0                             ADD AL, AL
000518b704: 240f                             AND AL, 0xf
000518b706: 00c0                             ADD AL, AL
000518b708: 2413                             AND AL, 0x13
000518b70a: 00c0                             ADD AL, AL
000518b70c: 2425                             AND AL, 0x25
000518b70e: 00c0                             ADD AL, AL
000518b710: 51                               PUSH CX
000518b711: 2600c0                           ADD AL, AL
000518b714: 0000                             ADD [BX+SI], AL
000518b716: 0000                             ADD [BX+SI], AL
000518b718: 136161                           ADC SP, [BX+DI+0x61]
000518b71b: 730e                             JAE 0x12b
000518b71d: 4f                               DEC DI
000518b71e: 740b                             JZ 0x12b
000518b720: 32e4                             XOR AH, AH
000518b722: 8a5600                           MOV DL, [BP+0x0]
000518b725: cd13                             INT 0x13
000518b727: ebd6                             JMP 0xff
000518b729: 61                               POPA
000518b72a: f9                               STC
000518b72b: c3                               RET

000518b72c: 49 6e 76 61 6c 69 64 20 70 61 72 74 69 74 69 6f   Invalid.partitio
000518b73c: 6e 20 74 61 00 f8 09 00 00 08 00 00 72 20 6c 6f   n.ta........r.lo
000518b74c: 61 64 69 6e 67 20 6f 70 65 72 61 74 69 6e 67 20   ading.operating.
000518b75c: 73 79 73 74 65 6d 00 4d 69 73 73 69 6e 67 20 6f   system.Missing.o
000518b76c: 70 65 72 61 74 69 6e 67 20 73 79 73 74 65 6d 00   perating.system.
000518b77c: 00 00 00 00 00 00 00 00 00 00 00 00 00 00 00 00   ................
000518b78c: 00 00 00 00 00 00 00 00 00 00 00 00 00 00 00 00   ................
000518b79c: 00 00 00 00 00 00 00 00 00 00 00 00 00 00 00 00   ................
000518b7ac: 00 00 00 00 00 00 00 00 00 2c 44 63               .........,Dc

===== Partition Table #1 =====
Boot flag: 0x80 (Bootable)
Partition type: 0x7 (NTFS)
Starting Sector (LBA): 0x38 (56)
Starting CHS: Cylinder: 0 Head: 1 Sector: 1
Ending CHS: Cylinder: 1023 Head: 254 Sector: 56
Size in sectors: 0x17fb690 (25147024)

===== Partition Table #2 =====
Boot flag: 0x0 
Partition type: 0x0 (Empty)
Starting Sector (LBA): 0x0 (0)
Starting CHS: Cylinder: 0 Head: 0 Sector: 0
Ending CHS: Cylinder: 0 Head: 0 Sector: 0
Size in sectors: 0x0 (0)

===== Partition Table #3 =====
Boot flag: 0x0 
Partition type: 0x0 (Empty)
Starting Sector (LBA): 0x0 (0)
Starting CHS: Cylinder: 0 Head: 0 Sector: 0
Ending CHS: Cylinder: 0 Head: 0 Sector: 0
Size in sectors: 0x0 (0)

===== Partition Table #4 =====
Boot flag: 0x0 
Partition type: 0x0 (Empty)
Starting Sector (LBA): 0x0 (0)
Starting CHS: Cylinder: 0 Head: 0 Sector: 0
Ending CHS: Cylinder: 0 Head: 0 Sector: 0
Size in sectors: 0x0 (0)

***************************************************************************

***************************************************************************
Potential MBR at physical offset: 0x7d9ad5b
Disk Signature: 51-a0-65-d8
Bootcode md5: 255a2763b09b4fd9bc7013f2cdd2f614
Bootcode (FULL) md5: b4d32cdf369a62c3df230b819e78099b
Disassembly of Bootable Code:
0007d9ad5b: 678cadc2317f79                   MOV [EBP+0x31c2], GS
0007d9ad62: ef                               OUT DX, AX
0007d9ad63: 22b5ef83                         AND DH, [DI-0x7c11]
0007d9ad67: cdfe                             INT 0xfe
0007d9ad69: e491                             IN AL, 0x91
0007d9ad6b: 97                               XCHG DI, AX
0007d9ad6c: bf82c0                           MOV DI, 0xc082
0007d9ad6f: 767b                             JBE 0x91
0007d9ad71: 38db                             CMP BL, BL
0007d9ad73: 8864f8                           MOV [SI-0x8], AH
0007d9ad76: 93                               XCHG BX, AX
0007d9ad77: 20979fa6                         AND [BX-0x5961], DL
0007d9ad7b: f9                               STC
0007d9ad7c: 3635b5df                         XOR AX, 0xdfb5
0007d9ad80: 262909                           SUB [ES:BX+DI], CX
0007d9ad83: 8c05                             MOV [DI], ES
0007d9ad85: 81f800c9                         CMP AX, 0xc900
0007d9ad89: 6e                               OUTS DX, BYTE [SI]
0007d9ad8a: 2bb2cc21                         SUB SI, [BP+SI+0x21cc]
0007d9ad8e: e9cc9c                           JMP 0x9d02
0007d9ad91: dd520d                           FST QWORD [BP+SI+0xd]
0007d9ad94: 7423                             JZ 0x5e
0007d9ad96: 2401                             AND AL, 0x1
0007d9ad98: 16                               PUSH SS
0007d9ad99: 67                               DB 0x67
0007d9ad9a: c7                               DB 0xc7
0007d9ad9b: 623d                             BOUND DI, [DI]
0007d9ad9d: ea1024b8c9                       JMP FAR 0xc9b8:0x2410
0007d9ada2: 0ada                             OR BL, DL
0007d9ada4: 50                               PUSH AX
0007d9ada5: a914c7                           TEST AX, 0xc714
0007d9ada8: 2db1f9                           SUB AX, 0xf9b1
0007d9adab: bf9687                           MOV DI, 0x8796
0007d9adae: 82692bf9                         SUB BYTE [BX+DI+0x2b], 0xf9
0007d9adb2: 0870c2                           OR [BX+SI-0x3e], DH
0007d9adb5: 4e                               DEC SI
0007d9adb6: d5c7                             AAD 0xc7
0007d9adb8: fa                               CLI
0007d9adb9: ca66ac                           RETF 0xac66
0007d9adbc: 91                               XCHG CX, AX
0007d9adbd: 5c                               POP SP
0007d9adbe: 6c                               INS BYTE [ES:DI], DX
0007d9adbf: 2b723a                           SUB SI, [BP+SI+0x3a]
0007d9adc2: 6d                               INS WORD [ES:DI], DX
0007d9adc3: 738f                             JAE 0xfff9
0007d9adc5: 2303                             AND AX, [BP+DI]
0007d9adc7: 66f5                             CMC
0007d9adc9: 3600d7                           ADD BH, DL
0007d9adcc: 84bad457                         TEST [BP+SI+0x57d4], BH
0007d9add0: 42                               INC DX
0007d9add1: aa                               STOSB
0007d9add2: 53                               PUSH BX
0007d9add3: deec                             FSUBP ST4, ST0
0007d9add5: 48                               DEC AX
0007d9add6: 256e00                           AND AX, 0x6e
0007d9add9: ce                               INTO
0007d9adda: bf5386                           MOV DI, 0x8653
0007d9addd: 339afb7e                         XOR BX, [BP+SI+0x7efb]
0007d9ade1: 84656b                           TEST [DI+0x6b], AH
0007d9ade4: 63e2                             ARPL DX, SP
0007d9ade6: 669b                             WAIT
0007d9ade8: 96                               XCHG SI, AX
0007d9ade9: 84c7                             TEST BH, AL
0007d9adeb: b171                             MOV CL, 0x71
0007d9aded: fc                               CLD
0007d9adee: 40                               INC AX
0007d9adef: f8                               CLC
0007d9adf0: e04f                             LOOPNZ 0xe6
0007d9adf2: 2b72ad                           SUB SI, [BP+SI-0x53]
0007d9adf5: c29090                           RET 0x9090
0007d9adf8: c3                               RET

0007d9adf9: 41 3f 6e ad 7d 28 2b f8 9d 04 01 8e 97 04 01 5b   A?n.}(+........[
0007d9ae09: 00 3c be 8a 41 c9 41 97 41 3c be 00 00 00 00 b8   .<..A.A.A<......
0007d9ae19: f1 0c 0c 6c 7e 10 08 bd 05 84 4f 4d b0 26 b0 f3   ...l~.....OM.&..
0007d9ae29: b0 e1 b0 c2 b0 a5 b0 87 b0 56 b1 3b b1 29 b1 12   .........V.;.)..
0007d9ae39: b1 0d b1 dd b1 91 b1 2f b2 b3 b3 5b b4 13 b5 fd   ......./...[....
0007d9ae49: b5 ef b5 71 b0 23 b0 7c b1 f8 b1 cf b1 b3 b1 a4   ...q.#.|........
0007d9ae59: b1 3f b2 19 b2 a0 b3 23 b4 12 b4 f2 b4 b2 b4 96   .?.....#........
0007d9ae69: b4 3c b5 d9 b5 cd b5 84 4f 00 00 00 00 00 00 cc   .<......O.......
0007d9ae79: 8b 63 9c 00 b3 cb 25 24 00 48 c4 a5 3b bd 3b aa   .c....%$.H..;.;.
0007d9ae89: 3b 48 c4 00 00 00 00 58 74 81 99 45 86 b4 ea 2c   ;H.....Xt..E...,
0007d9ae99: 00 10 b0 e5 4f f7 4f c9 4f 10 b0 00 00 00 00 d8   ....O.O.O.......
0007d9aea9: 3f 85 12 fd b1 f9 55 ff ff ff ff 9c 60 51 68 b0   ?.....U.....`Qh.
0007d9aeb9: a1 04 01 6a 01 e8 dd 41 fc ff ff e0 90 8f 01 8d   ...j...A........
0007d9aec9: 09 41 e8 00 b9 7b c0 42 b2 30 95 63 1b 68 37 7a   .A...{.B.0.c.h7z
0007d9aed9: a3 51 ff 97 e6 c7 ce d0 46 ef aa 0c e5 de 95 e8   .Q......F.......
0007d9aee9: 93 11 b9 53 15 fe a6 8b 4e 98 de 46 6b d4 8d 1f   ...S....N..Fk...
0007d9aef9: ae 44 64 cc 66 21 b5 7f c8 95 3d b7 b0 b7 5b a4   .Dd.f!....=...[.
0007d9af09: 6d 8d f4 d2 20 42 b2 61 3f 53                     m....B.a?S

===== Partition Table #1 =====
Boot flag: 0x8e 
Partition type: 0x9 (Invalid)
Starting Sector (LBA): 0xf48f6c36 (4103040054)
Starting CHS: Cylinder: 228 Head: 25 Sector: 4
Ending CHS: Cylinder: 701 Head: 46 Sector: 53
Size in sectors: -0x5a2f842a (-1513063466)

===== Partition Table #2 =====
Boot flag: 0x6f 
Partition type: 0x46 (Invalid)
Starting Sector (LBA): 0x93c2c3ec (2479014892)
Starting CHS: Cylinder: 639 Head: 204 Sector: 61
Ending CHS: Cylinder: 269 Head: 79 Sector: 29
Size in sectors: -0x13e12dfd (-333524477)

===== Partition Table #3 =====
Boot flag: 0x80 (Bootable)
Partition type: 0xf (Microsoft Extended, LBA)
Starting Sector (LBA): 0x929f356 (153744214)
Starting CHS: Cylinder: 116 Head: 19 Sector: 16
Ending CHS: Cylinder: 581 Head: 126 Sector: 43
Size in sectors: -0x7a902f32 (-2056269618)

===== Partition Table #4 =====
Boot flag: 0x73 
Partition type: 0x7d (Invalid)
Starting Sector (LBA): 0x1e0f2c14 (504310804)
Starting CHS: Cylinder: 428 Head: 80 Sector: 25
Ending CHS: Cylinder: 529 Head: 54 Sector: 38
Size in sectors: 0x1894d24 (25775396)

***************************************************************************

***************************************************************************
Potential MBR at physical offset: 0x96ed052
Disk Signature: 5f-55-00-3f
Bootcode md5: ebc87b8e59cb80429b94b6e252d10a16
Bootcode (FULL) md5: ebc87b8e59cb80429b94b6e252d10a16
Disassembly of Bootable Code:
00096ed052: 808080aabf                       ADD BYTE [BX+SI-0x5580], 0xbf
00096ed057: aa                               STOSB
00096ed058: a4                               MOVSB
00096ed059: a0a0aa                           MOV AL, [0xaaa0]
00096ed05c: df                               DB 0xdf
00096ed05d: d4aa                             AAM 0xaa
00096ed05f: ff                               DB 0xff
00096ed060: ffaaffff                         JMP FAR WORD [BP+SI-0x1]
00096ed064: f0fb                             STI
00096ed066: ffa4a0a0                         JMP WORD [SI-0x5f60]
00096ed06a: 003f                             ADD [BX], BH
00096ed06c: aa                               STOSB
00096ed06d: 55                               PUSH BP
00096ed06e: 3f                               AAS
00096ed06f: 7f55                             JG 0x74
00096ed071: bfaa55                           MOV DI, 0x55aa
00096ed074: ff                               DB 0xff
00096ed075: ffaaffff                         JMP FAR WORD [BP+SI-0x1]
00096ed079: a4                               MOVSB
00096ed07a: a0a055                           MOV AL, [0x55a0]
00096ed07d: bfaa55                           MOV DI, 0x55aa
00096ed080: 7faa                             JG 0xffda
00096ed082: 55                               PUSH BP
00096ed083: 7f7f                             JG 0xb2
00096ed085: 55                               PUSH BP
00096ed086: 9f                               LAHF
00096ed087: 7f55                             JG 0x8c
00096ed089: 9f                               LAHF
00096ed08a: aa                               STOSB
00096ed08b: aa                               STOSB
00096ed08c: 9f                               LAHF
00096ed08d: aa                               STOSB
00096ed08e: 001f                             ADD [BX], BL
00096ed090: 55                               PUSH BP
00096ed091: 0000                             ADD [BX+SI], AL
00096ed093: d455                             AAM 0x55
00096ed095: 1f                               POP DS
00096ed096: aa                               STOSB
00096ed097: 0000                             ADD [BX+SI], AL
00096ed099: 7f55                             JG 0x9e
00096ed09b: 3f                               AAS
00096ed09c: 7f55                             JG 0xa1
00096ed09e: 7f7f                             JG 0xcd
00096ed0a0: 55                               PUSH BP
00096ed0a1: 5f                               POP DI
00096ed0a2: 55                               PUSH BP
00096ed0a3: 005f55                           ADD [BX+0x55], BL
00096ed0a6: 55                               PUSH BP
00096ed0a7: 3f                               AAS
00096ed0a8: 55                               PUSH BP
00096ed0a9: 003f                             ADD [BX], BH
00096ed0ab: 2a00                             SUB AL, [BX+SI]
00096ed0ad: 3f                               AAS
00096ed0ae: 55                               PUSH BP
00096ed0af: 55                               PUSH BP
00096ed0b0: 3f                               AAS
00096ed0b1: 55                               PUSH BP
00096ed0b2: 003f                             ADD [BX], BH
00096ed0b4: 2a553f                           SUB DL, [DI+0x3f]
00096ed0b7: 55                               PUSH BP
00096ed0b8: 001f                             ADD [BX], BL
00096ed0ba: 2a00                             SUB AL, [BX+SI]
00096ed0bc: 3f                               AAS
00096ed0bd: 2a553f                           SUB DL, [DI+0x3f]
00096ed0c0: 2a00                             SUB AL, [BX+SI]
00096ed0c2: 3f                               AAS
00096ed0c3: 2a555f                           SUB DL, [DI+0x5f]
00096ed0c6: 55                               PUSH BP
00096ed0c7: 55                               PUSH BP
00096ed0c8: 7f7f                             JG 0xf7
00096ed0ca: 55                               PUSH BP
00096ed0cb: 9f                               LAHF
00096ed0cc: 7fa4                             JG 0x20
00096ed0ce: a0a0aa                           MOV AL, [0xaaa0]
00096ed0d1: 7f7f                             JG 0x100
00096ed0d3: aa                               STOSB
00096ed0d4: 7f7f                             JG 0x103
00096ed0d6: aa                               STOSB
00096ed0d7: bfaaaa                           MOV DI, 0xaaaa
00096ed0da: df                               DB 0xdf
00096ed0db: d4aa                             AAM 0xaa
00096ed0dd: df                               DB 0xdf
00096ed0de: d4aa                             AAM 0xaa
00096ed0e0: 9f                               LAHF
00096ed0e1: 7fff                             JG 0x90
00096ed0e3: 9f                               LAHF
00096ed0e4: 7fff                             JG 0x93
00096ed0e6: 9f                               LAHF
00096ed0e7: 7faa                             JG 0x41
00096ed0e9: 9f                               LAHF
00096ed0ea: aa                               STOSB
00096ed0eb: aa                               STOSB
00096ed0ec: 9f                               LAHF
00096ed0ed: 7fff                             JG 0x9c
00096ed0ef: 9f                               LAHF
00096ed0f0: 7fff                             JG 0x9f
00096ed0f2: 9f                               LAHF
00096ed0f3: 7fff                             JG 0xa2
00096ed0f5: 7f55                             JG 0xfa
00096ed0f7: aa                               STOSB
00096ed0f8: 5f                               POP DI
00096ed0f9: 55                               PUSH BP
00096ed0fa: aa                               STOSB
00096ed0fb: 9f                               LAHF
00096ed0fc: 55                               PUSH BP
00096ed0fd: ff                               DB 0xff
00096ed0fe: bf7ff0                           MOV DI, 0xf07f
00096ed101: caa6aa                           RETF 0xaaa6
00096ed104: df                               DB 0xdf
00096ed105: d4aa                             AAM 0xaa
00096ed107: bfaa55                           MOV DI, 0x55aa
00096ed10a: 9f                               LAHF
00096ed10b: aa                               STOSB
00096ed10c: 55                               PUSH BP
00096ed10d: 7f7f                             JG 0x13c
00096ed10f: 55                               PUSH BP
00096ed110: 7f7f                             JG 0x13f
00096ed112: 005f55                           ADD [BX+0x55], BL
00096ed115: 005f55                           ADD [BX+0x55], BL
00096ed118: 003f                             ADD [BX], BH
00096ed11a: 55                               PUSH BP
00096ed11b: 003f                             ADD [BX], BH
00096ed11d: 55                               PUSH BP
00096ed11e: 55                               PUSH BP
00096ed11f: 5f                               POP DI
00096ed120: 55                               PUSH BP
00096ed121: 003f                             ADD [BX], BH
00096ed123: 55                               PUSH BP
00096ed124: 55                               PUSH BP
00096ed125: 5f                               POP DI
00096ed126: 55                               PUSH BP
00096ed127: 003f                             ADD [BX], BH
00096ed129: 55                               PUSH BP
00096ed12a: 005f55                           ADD [BX+0x55], BL
00096ed12d: 005f55                           ADD [BX+0x55], BL
00096ed130: 55                               PUSH BP
00096ed131: 5f                               POP DI
00096ed132: 55                               PUSH BP
00096ed133: 005f55                           ADD [BX+0x55], BL
00096ed136: 007f7f                           ADD [BX+0x7f], BH
00096ed139: 55                               PUSH BP
00096ed13a: 7f7f                             JG 0x169
00096ed13c: 55                               PUSH BP
00096ed13d: 7f7f                             JG 0x16c
00096ed13f: 55                               PUSH BP
00096ed140: 7f7f                             JG 0x16f
00096ed142: 55                               PUSH BP
00096ed143: 9f                               LAHF
00096ed144: aa                               STOSB
00096ed145: a4                               MOVSB
00096ed146: a0a055                           MOV AL, [0x55a0]
00096ed149: bfd4aa                           MOV DI, 0xaad4
00096ed14c: bfaa80                           MOV DI, 0x80aa
00096ed14f: 8080555faa                       ADD BYTE [BX+SI+0x5f55], 0xaa
00096ed154: 005fff                           ADD [BX-0x1], BL
00096ed157: 003f                             ADD [BX], BH
00096ed159: d400                             AAM 0x0
00096ed15b: 3f                               AAS
00096ed15c: aa                               STOSB
00096ed15d: 55                               PUSH BP
00096ed15e: 5f                               POP DI
00096ed15f: 7f80                             JG 0x8f
00096ed161: 808055bfaa                       ADD BYTE [BX+SI-0x40ab], 0xaa
00096ed166: 55                               PUSH BP
00096ed167: bfd4aa                           MOV DI, 0xaad4
00096ed16a: bfaa55                           MOV DI, 0x55aa
00096ed16d: bfd455                           MOV DI, 0x55d4
00096ed170: 7f7f                             JG 0x19f
00096ed172: 003f                             ADD [BX], BH
00096ed174: aa                               STOSB
00096ed175: 005faa                           ADD [BX-0x56], BL
00096ed178: 55                               PUSH BP
00096ed179: 7faa                             JG 0xd3
00096ed17b: 009fd400                         ADD [BX+0xd4], BL
00096ed17f: bfaa55                           MOV DI, 0x55aa
00096ed182: 5f                               POP DI
00096ed183: 55                               PUSH BP
00096ed184: ff9f55ff                         CALL FAR WORD [BX-0xab]
00096ed188: dfaaffff                         FILD QWORD [BP+SI-0x1]
00096ed18c: ff                               DB 0xff
00096ed18d: ff                               DB 0xff
00096ed18e: ff                               DB 0xff
00096ed18f: ffaadf7f                         JMP FAR WORD [BP+SI+0x7fdf]
00096ed193: ff                               DB 0xff
00096ed194: bf55aa                           MOV DI, 0xaa55
00096ed197: 7f2a                             JG 0x171
00096ed199: aa                               STOSB
00096ed19a: 7f00                             JG 0x14a
00096ed19c: ff                               DB 0xff
00096ed19d: 7f00                             JG 0x14d
00096ed19f: aa                               STOSB
00096ed1a0: 5f                               POP DI
00096ed1a1: 2a00                             SUB AL, [BX+SI]
00096ed1a3: 7faa                             JG 0xfd
00096ed1a5: 005f7f                           ADD [BX+0x7f], BL
00096ed1a8: aa                               STOSB
00096ed1a9: bfaa55                           MOV DI, 0x55aa
00096ed1ac: 9f                               LAHF
00096ed1ad: aa                               STOSB
00096ed1ae: e3df                             JCXZ 0x13d
00096ed1b0: e000                             LOOPNZ 0x160
00096ed1b2: 55                               PUSH BP
00096ed1b3: 7f7f                             JG 0x1e2
00096ed1b5: 55                               PUSH BP
00096ed1b6: 7f7f                             JG 0x1e5
00096ed1b8: 55                               PUSH BP
00096ed1b9: bfaa80                           MOV DI, 0x80aa
00096ed1bc: 8080f0fbff                       ADD BYTE [BX+SI-0x410], 0xff
00096ed1c1: aa                               STOSB
00096ed1c2: ff                               DB 0xff
00096ed1c3: ff555f                           CALL WORD [DI+0x5f]
00096ed1c6: 55                               PUSH BP
00096ed1c7: 0000                             ADD [BX+SI], AL
00096ed1c9: 00a4a0a0                         ADD [SI-0x5f60], AH
00096ed1cd: 55                               PUSH BP
00096ed1ce: 9f                               LAHF
00096ed1cf: aa                               STOSB
00096ed1d0: 003f                             ADD [BX], BH
00096ed1d2: 7f55                             JG 0x1d7
00096ed1d4: 3f                               AAS
00096ed1d5: aa                               STOSB
00096ed1d6: 55                               PUSH BP
00096ed1d7: 3f                               AAS
00096ed1d8: aa                               STOSB
00096ed1d9: 55                               PUSH BP
00096ed1da: 7f7f                             JG 0x209
00096ed1dc: aa                               STOSB
00096ed1dd: ff                               DB 0xff
00096ed1de: ff55df                           CALL WORD [DI-0x21]
00096ed1e1: ff808080                         INC WORD [BX+SI-0x7f80]
00096ed1e5: aa                               STOSB
00096ed1e6: bfd4a4                           MOV DI, 0xa4d4
00096ed1e9: a0a055                           MOV AL, [0x55a0]
00096ed1ec: 9f                               LAHF
00096ed1ed: aa                               STOSB
00096ed1ee: 55                               PUSH BP
00096ed1ef: 7f7f                             JG 0x21e
00096ed1f1: 55                               PUSH BP
00096ed1f2: 7f7f                             JG 0x221
00096ed1f4: 55                               PUSH BP
00096ed1f5: 9f                               LAHF
00096ed1f6: aa                               STOSB
00096ed1f7: 55                               PUSH BP
00096ed1f8: bfaa55                           MOV DI, 0x55aa
00096ed1fb: 1f                               POP DS
00096ed1fc: 55                               PUSH BP
00096ed1fd: 0000                             ADD [BX+SI], AL
00096ed1ff: d455                             AAM 0x55
00096ed201: 3f                               AAS
00096ed202: 7f55                             JG 0x207
00096ed204: 7f7f                             JG 0x233
00096ed206: 80                               DB 0x80
00096ed207: 80                               DB 0x80
00096ed208: 80                               DB 0x80
00096ed209: 55                               PUSH BP


===== Partition Table #1 =====
Boot flag: 0x3f 
Partition type: 0x2a (Invalid)
Starting Sector (LBA): 0x55555f55 (1431658325)
Starting CHS: Cylinder: 63 Head: 85 Sector: 0
Ending CHS: Cylinder: 85 Head: 85 Sector: 63
Size in sectors: 0x5f55555f (1599427935)

===== Partition Table #2 =====
Boot flag: 0x55 
Partition type: 0x55 (Invalid)
Starting Sector (LBA): 0x5f552a3f (1599416895)
Starting CHS: Cylinder: 341 Head: 85 Sector: 31
Ending CHS: Cylinder: 256 Head: 95 Sector: 21
Size in sectors: 0x7f7f5555 (2139051349)

===== Partition Table #3 =====
Boot flag: 0x80 (Bootable)
Partition type: 0xa0 (Hibernation)
Starting Sector (LBA): 0xaabfaad4 (2864687828)
Starting CHS: Cylinder: 676 Head: 128 Sector: 0
Ending CHS: Cylinder: 703 Head: 160 Sector: 42
Size in sectors: -0x808056 (-8421462)

===== Partition Table #4 =====
Boot flag: 0x7f 
Partition type: 0x55 (Invalid)
Starting Sector (LBA): 0xaa7f9fff (2860490751)
Starting CHS: Cylinder: 895 Head: 127 Sector: 63
Ending CHS: Cylinder: 383 Head: 255 Sector: 63
Size in sectors: -0x6000aa81 (-1610656385)

***************************************************************************

***************************************************************************
Potential MBR at physical offset: 0x1321a1ef
Disk Signature: 3c-37-77-b2
Bootcode md5: 2855756bc302a0c0646c7dfd20eca1d2
Bootcode (FULL) md5: 242b6b2f5da913a80f963168c8bb9088
Disassembly of Bootable Code:
001321a1ef: d18dce82                         ROR WORD [DI-0x7d32], 0x1
001321a1f3: 834801a7                         OR WORD [BX+SI+0x1], -0x59
001321a1f7: 7c76                             JL 0x80
001321a1f9: 4b                               DEC BX
001321a1fa: 7426                             JZ 0x33
001321a1fc: 5b                               POP BX
001321a1fd: d3c7                             ROL DI, CL
001321a1ff: 9ac06bbd35                       CALL FAR 0x35bd:0x6bc0
001321a204: 092a                             OR [BP+SI], BP
001321a206: 51                               PUSH CX
001321a207: 7ce9                             JL 0x3
001321a209: 2e85fa                           TEST DX, DI
001321a20c: 82f3e4                           XOR BL, 0xe4
001321a20f: d4cd                             AAM 0xcd
001321a211: ce                               INTO
001321a212: 86d9                             XCHG CL, BL
001321a214: fd                               STD
001321a215: 95                               XCHG BP, AX
001321a216: 42                               INC DX
001321a217: a6                               CMPSB
001321a218: 4d                               DEC BP
001321a219: 3d5e42                           CMP AX, 0x425e
001321a21c: 94                               XCHG SP, AX
001321a21d: a11c17                           MOV AX, [0x171c]
001321a220: 44                               INC SP
001321a221: ac                               LODSB
001321a222: 68f3e4                           PUSH WORD 0xe4f3
001321a225: d9c1                             FLD ST1
001321a227: 50                               PUSH AX
001321a228: 37                               AAA
001321a229: 7a69                             JP 0xa5
001321a22b: e5a6                             IN AX, 0xa6
001321a22d: c05595a2                         RCL BYTE [DI-0x6b], 0xa2
001321a231: 869f3d3b                         XCHG [BX+0x3b3d], BL
001321a235: 8ead3a93                         MOV GS, [DI-0x6cc6]
001321a239: 7eba                             JLE 0x6
001321a23b: 1a13                             SBB DL, [BP+DI]
001321a23d: 16                               PUSH SS
001321a23e: 396fab                           CMP [BX-0x55], BP
001321a241: 90                               NOP
001321a242: 2812                             SUB [BP+SI], DL
001321a244: e50a                             IN AX, 0xa
001321a246: be5b15                           MOV SI, 0x155b
001321a249: 07                               POP ES
001321a24a: 17                               POP SS
001321a24b: 48                               DEC AX
001321a24c: 94                               XCHG SP, AX
001321a24d: 6f                               OUTS DX, WORD [SI]
001321a24e: 8a755b                           MOV DH, [DI+0x5b]
001321a251: 63c3                             ARPL BX, AX
001321a253: c13a60                           SAR WORD [BP+SI], 0x60
001321a256: c6                               DB 0xc6
001321a257: 61                               POPA
001321a258: 91                               XCHG CX, AX
001321a259: d7                               XLAT BYTE [BX+AL]
001321a25a: de9db79b                         FICOMP WORD [DI-0x6449]
001321a25e: b394                             MOV BL, 0x94
001321a260: 43                               INC BX
001321a261: fb                               STI
001321a262: f361                             POPA
001321a264: b0a1                             MOV AL, 0xa1
001321a266: 6a45                             PUSH 0x45
001321a268: 9e                               SAHF
001321a269: 6b2b5c                           IMUL BP, [BP+DI], 0x5c
001321a26c: 2583ab                           AND AX, 0xab83
001321a26f: 79cd                             JNS 0x4f
001321a271: f8                               CLC
001321a272: 54                               PUSH SP
001321a273: 96                               XCHG SI, AX
001321a274: 2175c6                           AND [DI-0x3a], SI
001321a277: 59                               POP CX
001321a278: de6cb9                           FISUBR WORD [SI-0x47]
001321a27b: 657446                           JZ 0xd5
001321a27e: d915                             FST DWORD [DI]
001321a280: ab                               STOSW
001321a281: a1a518                           MOV AX, [0x18a5]
001321a284: cc                               INT 3
001321a285: 6f                               OUTS DX, WORD [SI]
001321a286: 09f8                             OR AX, DI
001321a288: 1987ea3a                         SBB [BX+0x3aea], AX
001321a28c: 835d68e5                         SBB WORD [DI+0x68], -0x1b
001321a290: 98                               CBW
001321a291: af                               SCASW
001321a292: ddb2c96b                         FNSAVE [BP+SI+0x6bc9]
001321a296: c81c6298                         ENTER 0x621c, 0x98
001321a29a: d9b433e6                         FNSTENV [SI-0x19cd]
001321a29e: 7903                             JNS 0xb4
001321a2a0: 8b10                             MOV DX, [BX+SI]
001321a2a2: 96                               XCHG SI, AX
001321a2a3: 46                               INC SI
001321a2a4: c9                               LEAVE
001321a2a5: 6f                               OUTS DX, WORD [SI]
001321a2a6: f8                               CLC
001321a2a7: c9                               LEAVE
001321a2a8: ca98a0                           RETF 0xa098
001321a2ab: 316158                           XOR [BX+DI+0x58], SP
001321a2ae: 61                               POPA
001321a2af: 46                               INC SI
001321a2b0: 41                               INC CX
001321a2b1: ba5141                           MOV DX, 0x4151
001321a2b4: ebcc                             JMP 0x93
001321a2b6: e68a                             OUT 0x8a, AL
001321a2b8: 0d16e9                           OR AX, 0xe916
001321a2bb: 264f                             DEC DI
001321a2bd: 96                               XCHG SI, AX
001321a2be: 248f                             AND AL, 0x8f
001321a2c0: 1e                               PUSH DS
001321a2c1: ee                               OUT DX, AL
001321a2c2: b6d4                             MOV DH, 0xd4
001321a2c4: c9                               LEAVE
001321a2c5: d8a0f509                         FSUB DWORD [BX+SI+0x9f5]
001321a2c9: ce                               INTO
001321a2ca: c0e853                           SHR AL, 0x53
001321a2cd: 7ca5                             JL 0x85
001321a2cf: 1bd9                             SBB BX, CX
001321a2d1: ad                               LODSW
001321a2d2: 2b1c                             SUB BX, [SI]
001321a2d4: 2ccc                             SUB AL, 0xcc
001321a2d6: f2b05d                           MOV AL, 0x5d
001321a2d9: 0d8efb                           OR AX, 0xfb8e
001321a2dc: 41                               INC CX
001321a2dd: 7fb1                             JG 0xa1
001321a2df: 7937                             JNS 0x129
001321a2e1: 66a26fc5                         MOV [0xc56f], AL
001321a2e5: 050685                           ADD AX, 0x8506
001321a2e8: 84eb                             TEST BL, CH
001321a2ea: 1e                               PUSH DS
001321a2eb: 0196dce8                         ADD [BP-0x1724], DX
001321a2ef: 9a37114ca6                       CALL FAR 0xa64c:0x1137
001321a2f4: d14d05                           ROR WORD [DI+0x5], 0x1
001321a2f7: ac                               LODSB
001321a2f8: 98                               CBW
001321a2f9: c3                               RET

001321a2fa: 7a 8e c7 1b f4 f2 c3 26 c5 7a e5 1a 05 f6 da 4d   z......&.z.....M
001321a30a: 8b 6f 52 3b e7 5c 68 ef 31 d3 22 b9 ea 65 f2 fa   .oR;.\h.1."..e..
001321a31a: f1 89 ed 19 a3 f1 35 c5 96 7c 79 86 98 3f 3f b8   ......5..|y..??.
001321a32a: 47 e1 32 99 d4 31 f2 17 c8 1e c3 5b 76 4e 47 2e   G.2..1.....[vNG.
001321a33a: ef 25 47 fd 5f 65 be e9 ea 52 f8 f0 e6 85 cb d7   .%G._e...R......
001321a34a: a3 2f c6 2c 9e 13 f7 b8 4c d3 99 a0 8b 3f 51 f9   ./.,....L....?Q.
001321a35a: 1f 33 6e 24 8b 70 f0 d5 6d b2 94 14 61 ad 30 83   .3n$.p..m...a.0.
001321a36a: c1 d1 eb 07 0a 33 57 42 f6 c1 db 76 3c 20 c4 17   .....3WB...v<...
001321a37a: 0c 02 6b 71 f7 a5 59 8b 1d be 23 48 96 e9 09 67   ..kq..Y...#H...g
001321a38a: 37 16 f4 58 c6 57 bf 69 f7 31 7c d1 41 1b 42 b4   7..X.W.i.1|.A.B.
001321a39a: 14 15 89 4e 8c 9d b3 71 ad 11 28 7e 58            ...N...q..(~X

===== Partition Table #1 =====
Boot flag: 0x2e 
Partition type: 0xb6 (Invalid)
Starting Sector (LBA): 0x8462176 (138813814)
Starting CHS: Cylinder: 849 Head: 153 Sector: 11
Ending CHS: Cylinder: 178 Head: 109 Sector: 11
Size in sectors: -0x484e74ec (-1213101292)

===== Partition Table #2 =====
Boot flag: 0x39 
Partition type: 0x10 (Invalid)
Starting Sector (LBA): 0x856889fd (2238220797)
Starting CHS: Cylinder: 79 Head: 20 Sector: 5
Ending CHS: Cylinder: 970 Head: 244 Sector: 16
Size in sectors: -0x26d87a08 (-651721224)

===== Partition Table #3 =====
Boot flag: 0xb3 
Partition type: 0xc (FAT32,LBA)
Starting Sector (LBA): 0x9d2d8ee4 (2637008612)
Starting CHS: Cylinder: 309 Head: 236 Sector: 7
Ending CHS: Cylinder: 408 Head: 129 Sector: 59
Size in sectors: -0x51518dce (-1364299214)

===== Partition Table #4 =====
Boot flag: 0x80 (Bootable)
Partition type: 0x1 (FAT12,CHS)
Starting Sector (LBA): 0xae8bd783 (2928400259)
Starting CHS: Cylinder: 610 Head: 46 Sector: 59
Ending CHS: Cylinder: 36 Head: 148 Sector: 40
Size in sectors: -0x3791b64 (-58268516)

***************************************************************************

***************************************************************************
Potential MBR at physical offset: 0x13f60652
Disk Signature: 5f-55-00-3f
Bootcode md5: ebc87b8e59cb80429b94b6e252d10a16
Bootcode (FULL) md5: ebc87b8e59cb80429b94b6e252d10a16
Disassembly of Bootable Code:
0013f60652: 808080aabf                       ADD BYTE [BX+SI-0x5580], 0xbf
0013f60657: aa                               STOSB
0013f60658: a4                               MOVSB
0013f60659: a0a0aa                           MOV AL, [0xaaa0]
0013f6065c: df                               DB 0xdf
0013f6065d: d4aa                             AAM 0xaa
0013f6065f: ff                               DB 0xff
0013f60660: ffaaffff                         JMP FAR WORD [BP+SI-0x1]
0013f60664: f0fb                             STI
0013f60666: ffa4a0a0                         JMP WORD [SI-0x5f60]
0013f6066a: 003f                             ADD [BX], BH
0013f6066c: aa                               STOSB
0013f6066d: 55                               PUSH BP
0013f6066e: 3f                               AAS
0013f6066f: 7f55                             JG 0x74
0013f60671: bfaa55                           MOV DI, 0x55aa
0013f60674: ff                               DB 0xff
0013f60675: ffaaffff                         JMP FAR WORD [BP+SI-0x1]
0013f60679: a4                               MOVSB
0013f6067a: a0a055                           MOV AL, [0x55a0]
0013f6067d: bfaa55                           MOV DI, 0x55aa
0013f60680: 7faa                             JG 0xffda
0013f60682: 55                               PUSH BP
0013f60683: 7f7f                             JG 0xb2
0013f60685: 55                               PUSH BP
0013f60686: 9f                               LAHF
0013f60687: 7f55                             JG 0x8c
0013f60689: 9f                               LAHF
0013f6068a: aa                               STOSB
0013f6068b: aa                               STOSB
0013f6068c: 9f                               LAHF
0013f6068d: aa                               STOSB
0013f6068e: 001f                             ADD [BX], BL
0013f60690: 55                               PUSH BP
0013f60691: 0000                             ADD [BX+SI], AL
0013f60693: d455                             AAM 0x55
0013f60695: 1f                               POP DS
0013f60696: aa                               STOSB
0013f60697: 0000                             ADD [BX+SI], AL
0013f60699: 7f55                             JG 0x9e
0013f6069b: 3f                               AAS
0013f6069c: 7f55                             JG 0xa1
0013f6069e: 7f7f                             JG 0xcd
0013f606a0: 55                               PUSH BP
0013f606a1: 5f                               POP DI
0013f606a2: 55                               PUSH BP
0013f606a3: 005f55                           ADD [BX+0x55], BL
0013f606a6: 55                               PUSH BP
0013f606a7: 3f                               AAS
0013f606a8: 55                               PUSH BP
0013f606a9: 003f                             ADD [BX], BH
0013f606ab: 2a00                             SUB AL, [BX+SI]
0013f606ad: 3f                               AAS
0013f606ae: 55                               PUSH BP
0013f606af: 55                               PUSH BP
0013f606b0: 3f                               AAS
0013f606b1: 55                               PUSH BP
0013f606b2: 003f                             ADD [BX], BH
0013f606b4: 2a553f                           SUB DL, [DI+0x3f]
0013f606b7: 55                               PUSH BP
0013f606b8: 001f                             ADD [BX], BL
0013f606ba: 2a00                             SUB AL, [BX+SI]
0013f606bc: 3f                               AAS
0013f606bd: 2a553f                           SUB DL, [DI+0x3f]
0013f606c0: 2a00                             SUB AL, [BX+SI]
0013f606c2: 3f                               AAS
0013f606c3: 2a555f                           SUB DL, [DI+0x5f]
0013f606c6: 55                               PUSH BP
0013f606c7: 55                               PUSH BP
0013f606c8: 7f7f                             JG 0xf7
0013f606ca: 55                               PUSH BP
0013f606cb: 9f                               LAHF
0013f606cc: 7fa4                             JG 0x20
0013f606ce: a0a0aa                           MOV AL, [0xaaa0]
0013f606d1: 7f7f                             JG 0x100
0013f606d3: aa                               STOSB
0013f606d4: 7f7f                             JG 0x103
0013f606d6: aa                               STOSB
0013f606d7: bfaaaa                           MOV DI, 0xaaaa
0013f606da: df                               DB 0xdf
0013f606db: d4aa                             AAM 0xaa
0013f606dd: df                               DB 0xdf
0013f606de: d4aa                             AAM 0xaa
0013f606e0: 9f                               LAHF
0013f606e1: 7fff                             JG 0x90
0013f606e3: 9f                               LAHF
0013f606e4: 7fff                             JG 0x93
0013f606e6: 9f                               LAHF
0013f606e7: 7faa                             JG 0x41
0013f606e9: 9f                               LAHF
0013f606ea: aa                               STOSB
0013f606eb: aa                               STOSB
0013f606ec: 9f                               LAHF
0013f606ed: 7fff                             JG 0x9c
0013f606ef: 9f                               LAHF
0013f606f0: 7fff                             JG 0x9f
0013f606f2: 9f                               LAHF
0013f606f3: 7fff                             JG 0xa2
0013f606f5: 7f55                             JG 0xfa
0013f606f7: aa                               STOSB
0013f606f8: 5f                               POP DI
0013f606f9: 55                               PUSH BP
0013f606fa: aa                               STOSB
0013f606fb: 9f                               LAHF
0013f606fc: 55                               PUSH BP
0013f606fd: ff                               DB 0xff
0013f606fe: bf7ff0                           MOV DI, 0xf07f
0013f60701: caa6aa                           RETF 0xaaa6
0013f60704: df                               DB 0xdf
0013f60705: d4aa                             AAM 0xaa
0013f60707: bfaa55                           MOV DI, 0x55aa
0013f6070a: 9f                               LAHF
0013f6070b: aa                               STOSB
0013f6070c: 55                               PUSH BP
0013f6070d: 7f7f                             JG 0x13c
0013f6070f: 55                               PUSH BP
0013f60710: 7f7f                             JG 0x13f
0013f60712: 005f55                           ADD [BX+0x55], BL
0013f60715: 005f55                           ADD [BX+0x55], BL
0013f60718: 003f                             ADD [BX], BH
0013f6071a: 55                               PUSH BP
0013f6071b: 003f                             ADD [BX], BH
0013f6071d: 55                               PUSH BP
0013f6071e: 55                               PUSH BP
0013f6071f: 5f                               POP DI
0013f60720: 55                               PUSH BP
0013f60721: 003f                             ADD [BX], BH
0013f60723: 55                               PUSH BP
0013f60724: 55                               PUSH BP
0013f60725: 5f                               POP DI
0013f60726: 55                               PUSH BP
0013f60727: 003f                             ADD [BX], BH
0013f60729: 55                               PUSH BP
0013f6072a: 005f55                           ADD [BX+0x55], BL
0013f6072d: 005f55                           ADD [BX+0x55], BL
0013f60730: 55                               PUSH BP
0013f60731: 5f                               POP DI
0013f60732: 55                               PUSH BP
0013f60733: 005f55                           ADD [BX+0x55], BL
0013f60736: 007f7f                           ADD [BX+0x7f], BH
0013f60739: 55                               PUSH BP
0013f6073a: 7f7f                             JG 0x169
0013f6073c: 55                               PUSH BP
0013f6073d: 7f7f                             JG 0x16c
0013f6073f: 55                               PUSH BP
0013f60740: 7f7f                             JG 0x16f
0013f60742: 55                               PUSH BP
0013f60743: 9f                               LAHF
0013f60744: aa                               STOSB
0013f60745: a4                               MOVSB
0013f60746: a0a055                           MOV AL, [0x55a0]
0013f60749: bfd4aa                           MOV DI, 0xaad4
0013f6074c: bfaa80                           MOV DI, 0x80aa
0013f6074f: 8080555faa                       ADD BYTE [BX+SI+0x5f55], 0xaa
0013f60754: 005fff                           ADD [BX-0x1], BL
0013f60757: 003f                             ADD [BX], BH
0013f60759: d400                             AAM 0x0
0013f6075b: 3f                               AAS
0013f6075c: aa                               STOSB
0013f6075d: 55                               PUSH BP
0013f6075e: 5f                               POP DI
0013f6075f: 7f80                             JG 0x8f
0013f60761: 808055bfaa                       ADD BYTE [BX+SI-0x40ab], 0xaa
0013f60766: 55                               PUSH BP
0013f60767: bfd4aa                           MOV DI, 0xaad4
0013f6076a: bfaa55                           MOV DI, 0x55aa
0013f6076d: bfd455                           MOV DI, 0x55d4
0013f60770: 7f7f                             JG 0x19f
0013f60772: 003f                             ADD [BX], BH
0013f60774: aa                               STOSB
0013f60775: 005faa                           ADD [BX-0x56], BL
0013f60778: 55                               PUSH BP
0013f60779: 7faa                             JG 0xd3
0013f6077b: 009fd400                         ADD [BX+0xd4], BL
0013f6077f: bfaa55                           MOV DI, 0x55aa
0013f60782: 5f                               POP DI
0013f60783: 55                               PUSH BP
0013f60784: ff9f55ff                         CALL FAR WORD [BX-0xab]
0013f60788: dfaaffff                         FILD QWORD [BP+SI-0x1]
0013f6078c: ff                               DB 0xff
0013f6078d: ff                               DB 0xff
0013f6078e: ff                               DB 0xff
0013f6078f: ffaadf7f                         JMP FAR WORD [BP+SI+0x7fdf]
0013f60793: ff                               DB 0xff
0013f60794: bf55aa                           MOV DI, 0xaa55
0013f60797: 7f2a                             JG 0x171
0013f60799: aa                               STOSB
0013f6079a: 7f00                             JG 0x14a
0013f6079c: ff                               DB 0xff
0013f6079d: 7f00                             JG 0x14d
0013f6079f: aa                               STOSB
0013f607a0: 5f                               POP DI
0013f607a1: 2a00                             SUB AL, [BX+SI]
0013f607a3: 7faa                             JG 0xfd
0013f607a5: 005f7f                           ADD [BX+0x7f], BL
0013f607a8: aa                               STOSB
0013f607a9: bfaa55                           MOV DI, 0x55aa
0013f607ac: 9f                               LAHF
0013f607ad: aa                               STOSB
0013f607ae: e3df                             JCXZ 0x13d
0013f607b0: e000                             LOOPNZ 0x160
0013f607b2: 55                               PUSH BP
0013f607b3: 7f7f                             JG 0x1e2
0013f607b5: 55                               PUSH BP
0013f607b6: 7f7f                             JG 0x1e5
0013f607b8: 55                               PUSH BP
0013f607b9: bfaa80                           MOV DI, 0x80aa
0013f607bc: 8080f0fbff                       ADD BYTE [BX+SI-0x410], 0xff
0013f607c1: aa                               STOSB
0013f607c2: ff                               DB 0xff
0013f607c3: ff555f                           CALL WORD [DI+0x5f]
0013f607c6: 55                               PUSH BP
0013f607c7: 0000                             ADD [BX+SI], AL
0013f607c9: 00a4a0a0                         ADD [SI-0x5f60], AH
0013f607cd: 55                               PUSH BP
0013f607ce: 9f                               LAHF
0013f607cf: aa                               STOSB
0013f607d0: 003f                             ADD [BX], BH
0013f607d2: 7f55                             JG 0x1d7
0013f607d4: 3f                               AAS
0013f607d5: aa                               STOSB
0013f607d6: 55                               PUSH BP
0013f607d7: 3f                               AAS
0013f607d8: aa                               STOSB
0013f607d9: 55                               PUSH BP
0013f607da: 7f7f                             JG 0x209
0013f607dc: aa                               STOSB
0013f607dd: ff                               DB 0xff
0013f607de: ff55df                           CALL WORD [DI-0x21]
0013f607e1: ff808080                         INC WORD [BX+SI-0x7f80]
0013f607e5: aa                               STOSB
0013f607e6: bfd4a4                           MOV DI, 0xa4d4
0013f607e9: a0a055                           MOV AL, [0x55a0]
0013f607ec: 9f                               LAHF
0013f607ed: aa                               STOSB
0013f607ee: 55                               PUSH BP
0013f607ef: 7f7f                             JG 0x21e
0013f607f1: 55                               PUSH BP
0013f607f2: 7f7f                             JG 0x221
0013f607f4: 55                               PUSH BP
0013f607f5: 9f                               LAHF
0013f607f6: aa                               STOSB
0013f607f7: 55                               PUSH BP
0013f607f8: bfaa55                           MOV DI, 0x55aa
0013f607fb: 1f                               POP DS
0013f607fc: 55                               PUSH BP
0013f607fd: 0000                             ADD [BX+SI], AL
0013f607ff: d455                             AAM 0x55
0013f60801: 3f                               AAS
0013f60802: 7f55                             JG 0x207
0013f60804: 7f7f                             JG 0x233
0013f60806: 80                               DB 0x80
0013f60807: 80                               DB 0x80
0013f60808: 80                               DB 0x80
0013f60809: 55                               PUSH BP


===== Partition Table #1 =====
Boot flag: 0x3f 
Partition type: 0x2a (Invalid)
Starting Sector (LBA): 0x55555f55 (1431658325)
Starting CHS: Cylinder: 63 Head: 85 Sector: 0
Ending CHS: Cylinder: 85 Head: 85 Sector: 63
Size in sectors: 0x5f55555f (1599427935)

===== Partition Table #2 =====
Boot flag: 0x55 
Partition type: 0x55 (Invalid)
Starting Sector (LBA): 0x5f552a3f (1599416895)
Starting CHS: Cylinder: 341 Head: 85 Sector: 31
Ending CHS: Cylinder: 256 Head: 95 Sector: 21
Size in sectors: 0x7f7f5555 (2139051349)

===== Partition Table #3 =====
Boot flag: 0x80 (Bootable)
Partition type: 0xa0 (Hibernation)
Starting Sector (LBA): 0xaabfaad4 (2864687828)
Starting CHS: Cylinder: 676 Head: 128 Sector: 0
Ending CHS: Cylinder: 703 Head: 160 Sector: 42
Size in sectors: -0x808056 (-8421462)

===== Partition Table #4 =====
Boot flag: 0x7f 
Partition type: 0x55 (Invalid)
Starting Sector (LBA): 0xaa7f9fff (2860490751)
Starting CHS: Cylinder: 895 Head: 127 Sector: 63
Ending CHS: Cylinder: 383 Head: 255 Sector: 63
Size in sectors: -0x6000aa81 (-1610656385)

***************************************************************************

***************************************************************************
Potential MBR at physical offset: 0x15e18881
Disk Signature: 54-00-05-40
Bootcode md5: 56b14b1937071d3f0834797d57a95e8b
Bootcode (FULL) md5: 8ab3ce1186b73f67427b565a00896adb
Disassembly of Bootable Code:
0015e18881: 3031                             XOR [BX+DI], DH
0015e18883: 44                               INC SP
0015e18884: 41                               INC CX
0015e18885: 07                               POP ES
0015e18886: 756e                             JNZ 0x75
0015e18888: 69303144                         IMUL SI, [BX+SI], 0x4431
0015e1888c: 42                               INC DX
0015e1888d: 07                               POP ES
0015e1888e: 756e                             JNZ 0x7d
0015e18890: 69303144                         IMUL SI, [BX+SI], 0x4431
0015e18894: 43                               INC BX
0015e18895: 07                               POP ES
0015e18896: 756e                             JNZ 0x85
0015e18898: 69303439                         IMUL SI, [BX+SI], 0x3934
0015e1889c: 3207                             XOR AL, [BX]
0015e1889e: 756e                             JNZ 0x8d
0015e188a0: 69303439                         IMUL SI, [BX+SI], 0x3934
0015e188a4: 3307                             XOR AX, [BX]
0015e188a6: 756e                             JNZ 0x95
0015e188a8: 69303439                         IMUL SI, [BX+SI], 0x3934
0015e188ac: 3607                             POP ES
0015e188ae: 756e                             JNZ 0x9d
0015e188b0: 69303439                         IMUL SI, [BX+SI], 0x3934
0015e188b4: 37                               AAA
0015e188b5: 07                               POP ES
0015e188b6: 756e                             JNZ 0xa5
0015e188b8: 69303439                         IMUL SI, [BX+SI], 0x3934
0015e188bc: 61                               POPA
0015e188bd: 07                               POP ES
0015e188be: 756e                             JNZ 0xad
0015e188c0: 69303439                         IMUL SI, [BX+SI], 0x3934
0015e188c4: 6207                             BOUND AX, [BX]
0015e188c6: 756e                             JNZ 0xb5
0015e188c8: 69303439                         IMUL SI, [BX+SI], 0x3934
0015e188cc: 6307                             ARPL [BX], AX
0015e188ce: 756e                             JNZ 0xbd
0015e188d0: 69303439                         IMUL SI, [BX+SI], 0x3934
0015e188d4: 6407                             POP ES
0015e188d6: 756e                             JNZ 0xc5
0015e188d8: 69303461                         IMUL SI, [BX+SI], 0x6134
0015e188dc: 3207                             XOR AL, [BX]
0015e188de: 756e                             JNZ 0xcd
0015e188e0: 69303461                         IMUL SI, [BX+SI], 0x6134
0015e188e4: 3307                             XOR AX, [BX]
0015e188e6: 756e                             JNZ 0xd5
0015e188e8: 69303461                         IMUL SI, [BX+SI], 0x6134
0015e188ec: 6507                             POP ES
0015e188ee: 756e                             JNZ 0xdd
0015e188f0: 69303461                         IMUL SI, [BX+SI], 0x6134
0015e188f4: 6607                             POP ES
0015e188f6: 756e                             JNZ 0xe5
0015e188f8: 69303462                         IMUL SI, [BX+SI], 0x6234
0015e188fc: 3007                             XOR [BX], AL
0015e188fe: 756e                             JNZ 0xed
0015e18900: 69303462                         IMUL SI, [BX+SI], 0x6234
0015e18904: 3107                             XOR [BX], AX
0015e18906: 756e                             JNZ 0xf5
0015e18908: 69303462                         IMUL SI, [BX+SI], 0x6234
0015e1890c: 3207                             XOR AL, [BX]
0015e1890e: 756e                             JNZ 0xfd
0015e18910: 69303462                         IMUL SI, [BX+SI], 0x6234
0015e18914: 3307                             XOR AX, [BX]
0015e18916: 756e                             JNZ 0x105
0015e18918: 69303462                         IMUL SI, [BX+SI], 0x6234
0015e1891c: 3807                             CMP [BX], AL
0015e1891e: 756e                             JNZ 0x10d
0015e18920: 69303462                         IMUL SI, [BX+SI], 0x6234
0015e18924: 3907                             CMP [BX], AX
0015e18926: 756e                             JNZ 0x115
0015e18928: 69303462                         IMUL SI, [BX+SI], 0x6234
0015e1892c: 61                               POPA
0015e1892d: 07                               POP ES
0015e1892e: 756e                             JNZ 0x11d
0015e18930: 69303462                         IMUL SI, [BX+SI], 0x6234
0015e18934: 6207                             BOUND AX, [BX]
0015e18936: 756e                             JNZ 0x125
0015e18938: 69303138                         IMUL SI, [BX+SI], 0x3831
0015e1893c: 6607                             POP ES
0015e1893e: 756e                             JNZ 0x12d
0015e18940: 69303235                         IMUL SI, [BX+SI], 0x3532
0015e18944: 3907                             CMP [BX], AX
0015e18946: 756e                             JNZ 0x135
0015e18948: 69303465                         IMUL SI, [BX+SI], 0x6534
0015e1894c: 3807                             CMP [BX], AL
0015e1894e: 756e                             JNZ 0x13d
0015e18950: 69303465                         IMUL SI, [BX+SI], 0x6534
0015e18954: 3900                             CMP [BX+SI], AX
0015e18956: 0000                             ADD [BX+SI], AL
0015e18958: 0002                             ADD [BP+SI], AL
0015e1895a: 0000                             ADD [BX+SI], AL
0015e1895c: 0301                             ADD AX, [BX+DI]
0015e1895e: 0103                             ADD [BP+DI], AX
0015e18960: 02a00402                         ADD AH, [BX+SI+0x204]
0015e18964: 0003                             ADD [BP+DI], AL
0015e18966: 026604                           ADD AH, [BP+0x4]
0015e18969: 0200                             ADD AL, [BX+SI]
0015e1896b: 0302                             ADD AX, [BP+SI]
0015e1896d: 7705                             JA 0xf3
0015e1896f: 0101                             ADD [BX+DI], AX
0015e18971: 0403                             ADD AL, 0x3
0015e18973: a806                             TEST AL, 0x6
0015e18975: 0300                             ADD AX, [BX+SI]
0015e18977: 0403                             ADD AL, 0x3
0015e18979: 55                               PUSH BP
0015e1897a: 55                               PUSH BP
0015e1897b: 40                               INC AX
0015e1897c: 06                               PUSH ES
0015e1897d: 0300                             ADD AX, [BX+SI]
0015e1897f: 0403                             ADD AL, 0x3
0015e18981: 5d                               POP BP
0015e18982: 75c0                             JNZ 0xc3
0015e18984: 06                               PUSH ES
0015e18985: 0301                             ADD AX, [BX+DI]
0015e18987: 050480                           ADD AX, 0x8004
0015e1898a: c0400703                         ROL BYTE [BX+SI+0x7], 0x3
0015e1898e: 0105                             ADD [DI], AX
0015e18990: 0430                             ADD AL, 0x30
0015e18992: c3                               RET

0015e18993: 08 07 04 00 05 04 5a 5a 5a 50 08 03 01 06 04 30   ......ZZZP.....0
0015e189a3: c3 0c 08 04 00 06 04 5a 5a 5a 5a 08 04 00 06 04   .......ZZZZ.....
0015e189b3: 5f 5f 5f 5f 89 22 48 92 24 aa aa aa aa aa 2f cb   ____."H.$...../.
0015e189c3: f2 fc bf 89 22 48 92 24 89 22 40 aa aa aa aa aa   ...."H.$."@.....
0015e189d3: aa aa a0 57 d5 f5 7d 5f 57 d5 f0 0b 04 01 09 06   ...W..}_W.......
0015e189e3: 90 90 90 90 90 90 0c 06 00 09 06 56 a5 6a 56 a5   ...........V.jV.
0015e189f3: 6a 56 a5 6a 0c 06 00 09 06 57 f5 7f 57 f5 7f 57   jV.j.....W..W..W
0015e18a03: f5 7f 54 02 a8 05 40 2a 80 54 02 a8 05 40 00 55   ..T...@*.T...@.U
0015e18a13: 55 55 55 55 55 55 55 55 55 55 55 40 55 fd 57 f5   UUUUUUUUUUU@U.W.
0015e18a23: 5f d5 7f 55 fd 57 f5 5f c0 0d 07 00 0b 07 54 00   _..U.W._......T.
0015e18a33: 05 50 00 15 00 01                                 .P....

===== Partition Table #1 =====
Boot flag: 0x0 
Partition type: 0xaa (Invalid)
Starting Sector (LBA): 0xaaaaaaaa (2863311530)
Starting CHS: Cylinder: 84 Head: 11 Sector: 7
Ending CHS: Cylinder: 682 Head: 170 Sector: 42
Size in sectors: -0x55555556 (-1431655766)

===== Partition Table #2 =====
Boot flag: 0x80 (Bootable)
Partition type: 0xb (FAT32,CHS)
Starting Sector (LBA): 0x7fe55ff9 (2145738745)
Starting CHS: Cylinder: 0 Head: 15 Sector: 7
Ending CHS: Cylinder: 87 Head: 7 Sector: 42
Size in sectors: -0x6a8016b (-111673707)

===== Partition Table #3 =====
Boot flag: 0x5f 
Partition type: 0x10 (Invalid)
Starting Sector (LBA): 0x8c102308 (2349867784)
Starting CHS: Cylinder: 384 Head: 229 Sector: 63
Ending CHS: Cylinder: 12 Head: 7 Sector: 1
Size in sectors: -0x3bf7cebe (-1006096062)

===== Partition Table #4 =====
Boot flag: 0x23 
Partition type: 0x31 (Invalid)
Starting Sector (LBA): 0x80c0008 (135004168)
Starting CHS: Cylinder: 578 Head: 16 Sector: 12
Ending CHS: Cylinder: 784 Head: 8 Sector: 4
Size in sectors: -0x55aa55ab (-1437226411)

***************************************************************************

***************************************************************************
Potential MBR at physical offset: 0x162a2fa9
Disk Signature: 5f-55-55-3f
Bootcode md5: 0551fa60eb8384d5d14f650786deaf49
Bootcode (FULL) md5: 0551fa60eb8384d5d14f650786deaf49
Disassembly of Bootable Code:
00162a2fa9: 0d044f                           OR AX, 0x4f04
00162a2fac: e110                             LOOPZ 0x15
00162a2fae: c54b38                           LDS CX, [BP+DI+0x38]
00162a2fb1: 3686468f                         XCHG [BP-0x71], AL
00162a2fb5: 2b4742                           SUB AX, [BX+0x42]
00162a2fb8: 8a7b00                           MOV BH, [BP+DI+0x0]
00162a2fbb: 5c                               POP SP
00162a2fbc: 3d66c1                           CMP AX, 0xc166
00162a2fbf: 58                               POP AX
00162a2fc0: e440                             IN AL, 0x40
00162a2fc2: 8255535d                         ADC BYTE [DI+0x53], 0x5d
00162a2fc6: 43                               INC BX
00162a2fc7: 51                               PUSH CX
00162a2fc8: 9e                               SAHF
00162a2fc9: 3b1d                             CMP BX, [DI]
00162a2fcb: 252926                           AND AX, 0x2629
00162a2fce: dc21                             FSUB QWORD [BX+DI]
00162a2fd0: f0009f2c47                       LOCK ADD [BX+0x472c], BL
00162a2fd5: 1d5e28                           SBB AX, 0x285e
00162a2fd8: 42                               INC DX
00162a2fd9: 4d                               DEC BP
00162a2fda: 1936f550                         SBB [0x50f5], SI
00162a2fde: d832                             FDIV DWORD [BP+SI]
00162a2fe0: 2c76                             SUB AL, 0x76
00162a2fe2: 9b                               WAIT
00162a2fe3: 3f                               AAS
00162a2fe4: 9b                               WAIT
00162a2fe5: 6b5a3b26                         IMUL BX, [BP+SI+0x3b], 0x26
00162a2fe9: d6                               SALC
00162a2fea: 150391                           ADC AX, 0x9103
00162a2fed: cb                               RETF
00162a2fee: d407                             AAM 0x7
00162a2ff0: 48                               DEC AX
00162a2ff1: ed                               IN AX, DX
00162a2ff2: 97                               XCHG DI, AX
00162a2ff3: 0aff                             OR BH, BH
00162a2ff5: f056                             PUSH SI
00162a2ff7: 0e                               PUSH CS
00162a2ff8: fa                               CLI
00162a2ff9: a01110                           MOV AL, [0x1011]
00162a2ffc: 4d                               DEC BP
00162a2ffd: bdd014                           MOV BP, 0x14d0
00162a3000: 003f                             ADD [BX], BH
00162a3002: 55                               PUSH BP
00162a3003: 55                               PUSH BP
00162a3004: 3f                               AAS
00162a3005: 55                               PUSH BP
00162a3006: 55                               PUSH BP
00162a3007: 3f                               AAS
00162a3008: 2a00                             SUB AL, [BX+SI]
00162a300a: 1f                               POP DS
00162a300b: 2a555f                           SUB DL, [DI+0x5f]
00162a300e: 55                               PUSH BP
00162a300f: ff                               DB 0xff
00162a3010: df                               DB 0xdf
00162a3011: ffaabfaa                         JMP FAR WORD [BP+SI-0x5541]
00162a3015: a4                               MOVSB
00162a3016: a0a0aa                           MOV AL, [0xaaa0]
00162a3019: 9f                               LAHF
00162a301a: aa                               STOSB
00162a301b: aa                               STOSB
00162a301c: bfaaa4                           MOV DI, 0xa4aa
00162a301f: a0a080                           MOV AL, [0x80a0]
00162a3022: 8080a4a0a0                       ADD BYTE [BX+SI-0x5f5c], 0xa0
00162a3027: 55                               PUSH BP
00162a3028: 7f7f                             JG 0x100
00162a302a: aa                               STOSB
00162a302b: 9f                               LAHF
00162a302c: 7f55                             JG 0xda
00162a302e: 5f                               POP DI
00162a302f: 55                               PUSH BP
00162a3030: 808080553f                       ADD BYTE [BX+SI+0x5580], 0x3f
00162a3035: 55                               PUSH BP
00162a3036: aa                               STOSB
00162a3037: 9f                               LAHF
00162a3038: 7faa                             JG 0x3b
00162a303a: 7f55                             JG 0xe8
00162a303c: aa                               STOSB
00162a303d: 7f55                             JG 0xeb
00162a303f: aa                               STOSB
00162a3040: 9f                               LAHF
00162a3041: 7faa                             JG 0x44
00162a3043: 7f55                             JG 0xf1
00162a3045: aa                               STOSB
00162a3046: 5f                               POP DI
00162a3047: 2aaa7f55                         SUB CH, [BP+SI+0x557f]
00162a304b: aa                               STOSB
00162a304c: 7f55                             JG 0xfa
00162a304e: aa                               STOSB
00162a304f: 7f55                             JG 0xfd
00162a3051: aa                               STOSB
00162a3052: 9f                               LAHF
00162a3053: 55                               PUSH BP
00162a3054: 55                               PUSH BP
00162a3055: 5f                               POP DI
00162a3056: 2aaa7f55                         SUB CH, [BP+SI+0x557f]
00162a305a: aa                               STOSB
00162a305b: 7f55                             JG 0x109
00162a305d: aa                               STOSB
00162a305e: 7f55                             JG 0x10c
00162a3060: aa                               STOSB
00162a3061: 7f2a                             JG 0xe4
00162a3063: 001f                             ADD [BX], BL
00162a3065: 2a557f                           SUB DL, [DI+0x7f]
00162a3068: 7f00                             JG 0xc1
00162a306a: 7faa                             JG 0x6d
00162a306c: 55                               PUSH BP
00162a306d: 7faa                             JG 0x70
00162a306f: 55                               PUSH BP
00162a3070: 7faa                             JG 0x73
00162a3072: 55                               PUSH BP
00162a3073: 9f                               LAHF
00162a3074: aa                               STOSB
00162a3075: 55                               PUSH BP
00162a3076: 5f                               POP DI
00162a3077: 7f55                             JG 0x125
00162a3079: 7faa                             JG 0x7c
00162a307b: 55                               PUSH BP
00162a307c: 5f                               POP DI
00162a307d: 55                               PUSH BP
00162a307e: 007faa                           ADD [BX-0x56], BH
00162a3081: 55                               PUSH BP
00162a3082: 5f                               POP DI
00162a3083: 7f00                             JG 0xdc
00162a3085: 7faa                             JG 0x88
00162a3087: 55                               PUSH BP
00162a3088: 5f                               POP DI
00162a3089: 7f00                             JG 0xe2
00162a308b: 1f                               POP DS
00162a308c: 2a553f                           SUB DL, [DI+0x3f]
00162a308f: 2aaa5f2a                         SUB CH, [BP+SI+0x2a5f]
00162a3093: aa                               STOSB
00162a3094: 5f                               POP DI
00162a3095: 55                               PUSH BP
00162a3096: aa                               STOSB
00162a3097: 5f                               POP DI
00162a3098: 2a555f                           SUB DL, [DI+0x5f]
00162a309b: 2aaa5f55                         SUB CH, [BP+SI+0x555f]
00162a309f: 55                               PUSH BP
00162a30a0: 3f                               AAS
00162a30a1: 2aaa5f55                         SUB CH, [BP+SI+0x555f]
00162a30a5: aa                               STOSB
00162a30a6: 3f                               AAS
00162a30a7: 55                               PUSH BP
00162a30a8: 55                               PUSH BP
00162a30a9: 5f                               POP DI
00162a30aa: 2aaa5f2a                         SUB CH, [BP+SI+0x2a5f]
00162a30ae: 55                               PUSH BP
00162a30af: 5f                               POP DI
00162a30b0: 55                               PUSH BP
00162a30b1: aa                               STOSB
00162a30b2: 5f                               POP DI
00162a30b3: 2aaa5f55                         SUB CH, [BP+SI+0x555f]
00162a30b7: 003f                             ADD [BX], BH
00162a30b9: 2a551f                           SUB DL, [DI+0x1f]
00162a30bc: 7f00                             JG 0x115
00162a30be: 5f                               POP DI
00162a30bf: d455                             AAM 0x55
00162a30c1: 3f                               AAS
00162a30c2: 7f55                             JG 0x170
00162a30c4: 3f                               AAS
00162a30c5: 55                               PUSH BP
00162a30c6: 001f                             ADD [BX], BL
00162a30c8: 55                               PUSH BP
00162a30c9: 55                               PUSH BP
00162a30ca: 3f                               AAS
00162a30cb: 2a553f                           SUB DL, [DI+0x3f]
00162a30ce: 55                               PUSH BP
00162a30cf: 003f                             ADD [BX], BH
00162a30d1: 7f55                             JG 0x17f
00162a30d3: 3f                               AAS
00162a30d4: 7f55                             JG 0x182
00162a30d6: 5f                               POP DI
00162a30d7: 7f00                             JG 0x130
00162a30d9: 5f                               POP DI
00162a30da: aa                               STOSB
00162a30db: 55                               PUSH BP
00162a30dc: 5f                               POP DI
00162a30dd: aa                               STOSB
00162a30de: 55                               PUSH BP
00162a30df: 5f                               POP DI
00162a30e0: aa                               STOSB
00162a30e1: 55                               PUSH BP
00162a30e2: 5f                               POP DI
00162a30e3: aa                               STOSB
00162a30e4: 55                               PUSH BP
00162a30e5: 7fd4                             JG 0x112
00162a30e7: 007fd4                           ADD [BX-0x2c], BH
00162a30ea: e3df                             JCXZ 0x122
00162a30ec: e000                             LOOPNZ 0x145
00162a30ee: 55                               PUSH BP
00162a30ef: 3f                               AAS
00162a30f0: 7f00                             JG 0x149
00162a30f2: 3f                               AAS
00162a30f3: 7f55                             JG 0x1a1
00162a30f5: 3f                               AAS
00162a30f6: 7f00                             JG 0x14f
00162a30f8: 1f                               POP DS
00162a30f9: 55                               PUSH BP
00162a30fa: 55                               PUSH BP
00162a30fb: 3f                               AAS
00162a30fc: 55                               PUSH BP
00162a30fd: 55                               PUSH BP
00162a30fe: 3f                               AAS
00162a30ff: 7f55                             JG 0x1ad
00162a3101: 3f                               AAS
00162a3102: 7f00                             JG 0x15b
00162a3104: 1f                               POP DS
00162a3105: 55                               PUSH BP
00162a3106: 55                               PUSH BP
00162a3107: 7faa                             JG 0x10a
00162a3109: 55                               PUSH BP
00162a310a: 9f                               LAHF
00162a310b: d455                             AAM 0x55
00162a310d: 5f                               POP DI
00162a310e: aa                               STOSB
00162a310f: 55                               PUSH BP
00162a3110: 3f                               AAS
00162a3111: aa                               STOSB
00162a3112: 005f7f                           ADD [BX+0x7f], BL
00162a3115: 55                               PUSH BP
00162a3116: 5f                               POP DI
00162a3117: aa                               STOSB
00162a3118: 55                               PUSH BP
00162a3119: 5f                               POP DI
00162a311a: 7f55                             JG 0x1c8
00162a311c: 5f                               POP DI
00162a311d: 7f00                             JG 0x176
00162a311f: 3f                               AAS
00162a3120: aa                               STOSB
00162a3121: 55                               PUSH BP
00162a3122: 5f                               POP DI
00162a3123: 7f55                             JG 0x1d1
00162a3125: 5f                               POP DI
00162a3126: 7f55                             JG 0x1d4
00162a3128: 3f                               AAS
00162a3129: aa                               STOSB
00162a312a: 001f                             ADD [BX], BL
00162a312c: 7f00                             JG 0x185
00162a312e: 1f                               POP DS
00162a312f: 2a808080                         SUB AL, [BX+SI-0x7f80]
00162a3133: aa                               STOSB
00162a3134: 9f                               LAHF
00162a3135: 55                               PUSH BP
00162a3136: aa                               STOSB
00162a3137: 5f                               POP DI
00162a3138: 55                               PUSH BP
00162a3139: 55                               PUSH BP
00162a313a: 5f                               POP DI
00162a313b: 55                               PUSH BP
00162a313c: aa                               STOSB
00162a313d: 5f                               POP DI
00162a313e: 2a551f                           SUB DL, [DI+0x1f]
00162a3141: 2a00                             SUB AL, [BX+SI]
00162a3143: 3f                               AAS
00162a3144: 55                               PUSH BP
00162a3145: 55                               PUSH BP
00162a3146: 3f                               AAS
00162a3147: 55                               PUSH BP
00162a3148: 003f                             ADD [BX], BH
00162a314a: 55                               PUSH BP
00162a314b: 55                               PUSH BP
00162a314c: 3f                               AAS
00162a314d: 55                               PUSH BP
00162a314e: 001f                             ADD [BX], BL
00162a3150: 2aaa7f7f                         SUB CH, [BP+SI+0x7f7f]
00162a3154: 55                               PUSH BP
00162a3155: 5f                               POP DI
00162a3156: 55                               PUSH BP
00162a3157: 55                               PUSH BP
00162a3158: 5f                               POP DI
00162a3159: 55                               PUSH BP
00162a315a: 55                               PUSH BP
00162a315b: 5f                               POP DI
00162a315c: 55                               PUSH BP
00162a315d: 55                               PUSH BP
00162a315e: 3f                               AAS
00162a315f: 55                               PUSH BP
00162a3160: 55                               PUSH BP


===== Partition Table #1 =====
Boot flag: 0x5f 
Partition type: 0x55 (Invalid)
Starting Sector (LBA): 0x552a3f55 (1428832085)
Starting CHS: Cylinder: 351 Head: 85 Sector: 21
Ending CHS: Cylinder: 85 Head: 85 Sector: 63
Size in sectors: 0x1f55553f (525686079)

===== Partition Table #2 =====
Boot flag: 0x2a 
Partition type: 0xff (Invalid)
Starting Sector (LBA): 0x5f55aabf (1599449791)
Starting CHS: Cylinder: 640 Head: 128 Sector: 0
Ending CHS: Cylinder: 938 Head: 223 Sector: 20
Size in sectors: -0x5f5f5bab (-1600084907)

===== Partition Table #3 =====
Boot flag: 0xaa 
Partition type: 0x7f (Invalid)
Starting Sector (LBA): 0x808080aa (2155905194)
Starting CHS: Cylinder: 682 Head: 191 Sector: 42
Ending CHS: Cylinder: 703 Head: 127 Sector: 42
Size in sectors: -0x7faaa0ab (-2141888683)

===== Partition Table #4 =====
Boot flag: 0x80 (Bootable)
Partition type: 0xa0 (Hibernation)
Starting Sector (LBA): 0xaa2a3f55 (2854895445)
Starting CHS: Cylinder: 672 Head: 128 Sector: 36
Ending CHS: Cylinder: 640 Head: 128 Sector: 0
Size in sectors: 0x7faa7f9f (2141880223)

***************************************************************************

***************************************************************************
Potential MBR at physical offset: 0x162a2fb8
Disk Signature: 3f-2a-55-3f
Bootcode md5: 158dfc67662e529ab5f6a9b3e60cad6a
Bootcode (FULL) md5: 158dfc67662e529ab5f6a9b3e60cad6a
Disassembly of Bootable Code:
00162a2fb8: 8a7b00                           MOV BH, [BP+DI+0x0]
00162a2fbb: 5c                               POP SP
00162a2fbc: 3d66c1                           CMP AX, 0xc166
00162a2fbf: 58                               POP AX
00162a2fc0: e440                             IN AL, 0x40
00162a2fc2: 8255535d                         ADC BYTE [DI+0x53], 0x5d
00162a2fc6: 43                               INC BX
00162a2fc7: 51                               PUSH CX
00162a2fc8: 9e                               SAHF
00162a2fc9: 3b1d                             CMP BX, [DI]
00162a2fcb: 252926                           AND AX, 0x2629
00162a2fce: dc21                             FSUB QWORD [BX+DI]
00162a2fd0: f0009f2c47                       LOCK ADD [BX+0x472c], BL
00162a2fd5: 1d5e28                           SBB AX, 0x285e
00162a2fd8: 42                               INC DX
00162a2fd9: 4d                               DEC BP
00162a2fda: 1936f550                         SBB [0x50f5], SI
00162a2fde: d832                             FDIV DWORD [BP+SI]
00162a2fe0: 2c76                             SUB AL, 0x76
00162a2fe2: 9b                               WAIT
00162a2fe3: 3f                               AAS
00162a2fe4: 9b                               WAIT
00162a2fe5: 6b5a3b26                         IMUL BX, [BP+SI+0x3b], 0x26
00162a2fe9: d6                               SALC
00162a2fea: 150391                           ADC AX, 0x9103
00162a2fed: cb                               RETF
00162a2fee: d407                             AAM 0x7
00162a2ff0: 48                               DEC AX
00162a2ff1: ed                               IN AX, DX
00162a2ff2: 97                               XCHG DI, AX
00162a2ff3: 0aff                             OR BH, BH
00162a2ff5: f056                             PUSH SI
00162a2ff7: 0e                               PUSH CS
00162a2ff8: fa                               CLI
00162a2ff9: a01110                           MOV AL, [0x1011]
00162a2ffc: 4d                               DEC BP
00162a2ffd: bdd014                           MOV BP, 0x14d0
00162a3000: 003f                             ADD [BX], BH
00162a3002: 55                               PUSH BP
00162a3003: 55                               PUSH BP
00162a3004: 3f                               AAS
00162a3005: 55                               PUSH BP
00162a3006: 55                               PUSH BP
00162a3007: 3f                               AAS
00162a3008: 2a00                             SUB AL, [BX+SI]
00162a300a: 1f                               POP DS
00162a300b: 2a555f                           SUB DL, [DI+0x5f]
00162a300e: 55                               PUSH BP
00162a300f: ff                               DB 0xff
00162a3010: df                               DB 0xdf
00162a3011: ffaabfaa                         JMP FAR WORD [BP+SI-0x5541]
00162a3015: a4                               MOVSB
00162a3016: a0a0aa                           MOV AL, [0xaaa0]
00162a3019: 9f                               LAHF
00162a301a: aa                               STOSB
00162a301b: aa                               STOSB
00162a301c: bfaaa4                           MOV DI, 0xa4aa
00162a301f: a0a080                           MOV AL, [0x80a0]
00162a3022: 8080a4a0a0                       ADD BYTE [BX+SI-0x5f5c], 0xa0
00162a3027: 55                               PUSH BP
00162a3028: 7f7f                             JG 0xf1
00162a302a: aa                               STOSB
00162a302b: 9f                               LAHF
00162a302c: 7f55                             JG 0xcb
00162a302e: 5f                               POP DI
00162a302f: 55                               PUSH BP
00162a3030: 808080553f                       ADD BYTE [BX+SI+0x5580], 0x3f
00162a3035: 55                               PUSH BP
00162a3036: aa                               STOSB
00162a3037: 9f                               LAHF
00162a3038: 7faa                             JG 0x2c
00162a303a: 7f55                             JG 0xd9
00162a303c: aa                               STOSB
00162a303d: 7f55                             JG 0xdc
00162a303f: aa                               STOSB
00162a3040: 9f                               LAHF
00162a3041: 7faa                             JG 0x35
00162a3043: 7f55                             JG 0xe2
00162a3045: aa                               STOSB
00162a3046: 5f                               POP DI
00162a3047: 2aaa7f55                         SUB CH, [BP+SI+0x557f]
00162a304b: aa                               STOSB
00162a304c: 7f55                             JG 0xeb
00162a304e: aa                               STOSB
00162a304f: 7f55                             JG 0xee
00162a3051: aa                               STOSB
00162a3052: 9f                               LAHF
00162a3053: 55                               PUSH BP
00162a3054: 55                               PUSH BP
00162a3055: 5f                               POP DI
00162a3056: 2aaa7f55                         SUB CH, [BP+SI+0x557f]
00162a305a: aa                               STOSB
00162a305b: 7f55                             JG 0xfa
00162a305d: aa                               STOSB
00162a305e: 7f55                             JG 0xfd
00162a3060: aa                               STOSB
00162a3061: 7f2a                             JG 0xd5
00162a3063: 001f                             ADD [BX], BL
00162a3065: 2a557f                           SUB DL, [DI+0x7f]
00162a3068: 7f00                             JG 0xb2
00162a306a: 7faa                             JG 0x5e
00162a306c: 55                               PUSH BP
00162a306d: 7faa                             JG 0x61
00162a306f: 55                               PUSH BP
00162a3070: 7faa                             JG 0x64
00162a3072: 55                               PUSH BP
00162a3073: 9f                               LAHF
00162a3074: aa                               STOSB
00162a3075: 55                               PUSH BP
00162a3076: 5f                               POP DI
00162a3077: 7f55                             JG 0x116
00162a3079: 7faa                             JG 0x6d
00162a307b: 55                               PUSH BP
00162a307c: 5f                               POP DI
00162a307d: 55                               PUSH BP
00162a307e: 007faa                           ADD [BX-0x56], BH
00162a3081: 55                               PUSH BP
00162a3082: 5f                               POP DI
00162a3083: 7f00                             JG 0xcd
00162a3085: 7faa                             JG 0x79
00162a3087: 55                               PUSH BP
00162a3088: 5f                               POP DI
00162a3089: 7f00                             JG 0xd3
00162a308b: 1f                               POP DS
00162a308c: 2a553f                           SUB DL, [DI+0x3f]
00162a308f: 2aaa5f2a                         SUB CH, [BP+SI+0x2a5f]
00162a3093: aa                               STOSB
00162a3094: 5f                               POP DI
00162a3095: 55                               PUSH BP
00162a3096: aa                               STOSB
00162a3097: 5f                               POP DI
00162a3098: 2a555f                           SUB DL, [DI+0x5f]
00162a309b: 2aaa5f55                         SUB CH, [BP+SI+0x555f]
00162a309f: 55                               PUSH BP
00162a30a0: 3f                               AAS
00162a30a1: 2aaa5f55                         SUB CH, [BP+SI+0x555f]
00162a30a5: aa                               STOSB
00162a30a6: 3f                               AAS
00162a30a7: 55                               PUSH BP
00162a30a8: 55                               PUSH BP
00162a30a9: 5f                               POP DI
00162a30aa: 2aaa5f2a                         SUB CH, [BP+SI+0x2a5f]
00162a30ae: 55                               PUSH BP
00162a30af: 5f                               POP DI
00162a30b0: 55                               PUSH BP
00162a30b1: aa                               STOSB
00162a30b2: 5f                               POP DI
00162a30b3: 2aaa5f55                         SUB CH, [BP+SI+0x555f]
00162a30b7: 003f                             ADD [BX], BH
00162a30b9: 2a551f                           SUB DL, [DI+0x1f]
00162a30bc: 7f00                             JG 0x106
00162a30be: 5f                               POP DI
00162a30bf: d455                             AAM 0x55
00162a30c1: 3f                               AAS
00162a30c2: 7f55                             JG 0x161
00162a30c4: 3f                               AAS
00162a30c5: 55                               PUSH BP
00162a30c6: 001f                             ADD [BX], BL
00162a30c8: 55                               PUSH BP
00162a30c9: 55                               PUSH BP
00162a30ca: 3f                               AAS
00162a30cb: 2a553f                           SUB DL, [DI+0x3f]
00162a30ce: 55                               PUSH BP
00162a30cf: 003f                             ADD [BX], BH
00162a30d1: 7f55                             JG 0x170
00162a30d3: 3f                               AAS
00162a30d4: 7f55                             JG 0x173
00162a30d6: 5f                               POP DI
00162a30d7: 7f00                             JG 0x121
00162a30d9: 5f                               POP DI
00162a30da: aa                               STOSB
00162a30db: 55                               PUSH BP
00162a30dc: 5f                               POP DI
00162a30dd: aa                               STOSB
00162a30de: 55                               PUSH BP
00162a30df: 5f                               POP DI
00162a30e0: aa                               STOSB
00162a30e1: 55                               PUSH BP
00162a30e2: 5f                               POP DI
00162a30e3: aa                               STOSB
00162a30e4: 55                               PUSH BP
00162a30e5: 7fd4                             JG 0x103
00162a30e7: 007fd4                           ADD [BX-0x2c], BH
00162a30ea: e3df                             JCXZ 0x113
00162a30ec: e000                             LOOPNZ 0x136
00162a30ee: 55                               PUSH BP
00162a30ef: 3f                               AAS
00162a30f0: 7f00                             JG 0x13a
00162a30f2: 3f                               AAS
00162a30f3: 7f55                             JG 0x192
00162a30f5: 3f                               AAS
00162a30f6: 7f00                             JG 0x140
00162a30f8: 1f                               POP DS
00162a30f9: 55                               PUSH BP
00162a30fa: 55                               PUSH BP
00162a30fb: 3f                               AAS
00162a30fc: 55                               PUSH BP
00162a30fd: 55                               PUSH BP
00162a30fe: 3f                               AAS
00162a30ff: 7f55                             JG 0x19e
00162a3101: 3f                               AAS
00162a3102: 7f00                             JG 0x14c
00162a3104: 1f                               POP DS
00162a3105: 55                               PUSH BP
00162a3106: 55                               PUSH BP
00162a3107: 7faa                             JG 0xfb
00162a3109: 55                               PUSH BP
00162a310a: 9f                               LAHF
00162a310b: d455                             AAM 0x55
00162a310d: 5f                               POP DI
00162a310e: aa                               STOSB
00162a310f: 55                               PUSH BP
00162a3110: 3f                               AAS
00162a3111: aa                               STOSB
00162a3112: 005f7f                           ADD [BX+0x7f], BL
00162a3115: 55                               PUSH BP
00162a3116: 5f                               POP DI
00162a3117: aa                               STOSB
00162a3118: 55                               PUSH BP
00162a3119: 5f                               POP DI
00162a311a: 7f55                             JG 0x1b9
00162a311c: 5f                               POP DI
00162a311d: 7f00                             JG 0x167
00162a311f: 3f                               AAS
00162a3120: aa                               STOSB
00162a3121: 55                               PUSH BP
00162a3122: 5f                               POP DI
00162a3123: 7f55                             JG 0x1c2
00162a3125: 5f                               POP DI
00162a3126: 7f55                             JG 0x1c5
00162a3128: 3f                               AAS
00162a3129: aa                               STOSB
00162a312a: 001f                             ADD [BX], BL
00162a312c: 7f00                             JG 0x176
00162a312e: 1f                               POP DS
00162a312f: 2a808080                         SUB AL, [BX+SI-0x7f80]
00162a3133: aa                               STOSB
00162a3134: 9f                               LAHF
00162a3135: 55                               PUSH BP
00162a3136: aa                               STOSB
00162a3137: 5f                               POP DI
00162a3138: 55                               PUSH BP
00162a3139: 55                               PUSH BP
00162a313a: 5f                               POP DI
00162a313b: 55                               PUSH BP
00162a313c: aa                               STOSB
00162a313d: 5f                               POP DI
00162a313e: 2a551f                           SUB DL, [DI+0x1f]
00162a3141: 2a00                             SUB AL, [BX+SI]
00162a3143: 3f                               AAS
00162a3144: 55                               PUSH BP
00162a3145: 55                               PUSH BP
00162a3146: 3f                               AAS
00162a3147: 55                               PUSH BP
00162a3148: 003f                             ADD [BX], BH
00162a314a: 55                               PUSH BP
00162a314b: 55                               PUSH BP
00162a314c: 3f                               AAS
00162a314d: 55                               PUSH BP
00162a314e: 001f                             ADD [BX], BL
00162a3150: 2aaa7f7f                         SUB CH, [BP+SI+0x7f7f]
00162a3154: 55                               PUSH BP
00162a3155: 5f                               POP DI
00162a3156: 55                               PUSH BP
00162a3157: 55                               PUSH BP
00162a3158: 5f                               POP DI
00162a3159: 55                               PUSH BP
00162a315a: 55                               PUSH BP
00162a315b: 5f                               POP DI
00162a315c: 55                               PUSH BP
00162a315d: 55                               PUSH BP
00162a315e: 3f                               AAS
00162a315f: 55                               PUSH BP
00162a3160: 55                               PUSH BP
00162a3161: 5f                               POP DI
00162a3162: 55                               PUSH BP
00162a3163: 55                               PUSH BP
00162a3164: 3f                               AAS
00162a3165: 55                               PUSH BP
00162a3166: 55                               PUSH BP
00162a3167: 5f                               POP DI
00162a3168: 55                               PUSH BP
00162a3169: 55                               PUSH BP
00162a316a: 5f                               POP DI
00162a316b: 55                               PUSH BP
00162a316c: 55                               PUSH BP
00162a316d: 3f                               AAS
00162a316e: 55                               PUSH BP
00162a316f: 55                               PUSH BP


===== Partition Table #1 =====
Boot flag: 0x1f 
Partition type: 0x80 (Invalid)
Starting Sector (LBA): 0x55aabfaa (1437253546)
Starting CHS: Cylinder: 640 Head: 42 Sector: 0
Ending CHS: Cylinder: 980 Head: 255 Sector: 31
Size in sectors: -0x5f5baaa1 (-1599842977)

===== Partition Table #2 =====
Boot flag: 0xa0 
Partition type: 0xaa (Invalid)
Starting Sector (LBA): 0x8080aabf (2155915967)
Starting CHS: Cylinder: 682 Head: 170 Sector: 63
Ending CHS: Cylinder: 426 Head: 127 Sector: 63
Size in sectors: 0x555f5580 (1432311168)

===== Partition Table #3 =====
Boot flag: 0x80 (Bootable)
Partition type: 0xa0 (Hibernation)
Starting Sector (LBA): 0x2a3f5580 (708793728)
Starting CHS: Cylinder: 676 Head: 128 Sector: 0
Ending CHS: Cylinder: 640 Head: 160 Sector: 0
Size in sectors: -0x55806056 (-1434476630)

===== Partition Table #4 =====
Boot flag: 0x7f 
Partition type: 0x55 (Invalid)
Starting Sector (LBA): 0xaa557faa (2857729962)
Starting CHS: Cylinder: 639 Head: 85 Sector: 42
Ending CHS: Cylinder: 597 Head: 170 Sector: 31
Size in sectors: 0x7faa2a5f (2141858399)

***************************************************************************

***************************************************************************
Potential MBR at physical offset: 0x162a355f
Disk Signature: 3f-55-55-3f
Bootcode md5: a2db298155a35f8d4b2f29a2b02f5b28
Bootcode (FULL) md5: a2db298155a35f8d4b2f29a2b02f5b28
Disassembly of Bootable Code:
00162a355f: 55                               PUSH BP
00162a3560: 5f                               POP DI
00162a3561: aa                               STOSB
00162a3562: 55                               PUSH BP
00162a3563: 3f                               AAS
00162a3564: 7f55                             JG 0x5c
00162a3566: 5f                               POP DI
00162a3567: aa                               STOSB
00162a3568: 55                               PUSH BP
00162a3569: 3f                               AAS
00162a356a: aa                               STOSB
00162a356b: 003f                             ADD [BX], BH
00162a356d: aa                               STOSB
00162a356e: 55                               PUSH BP
00162a356f: 3f                               AAS
00162a3570: 2a00                             SUB AL, [BX+SI]
00162a3572: 1f                               POP DS
00162a3573: 55                               PUSH BP
00162a3574: aa                               STOSB
00162a3575: 9f                               LAHF
00162a3576: 7faa                             JG 0xffc3
00162a3578: 9f                               LAHF
00162a3579: 7f55                             JG 0x71
00162a357b: 3f                               AAS
00162a357c: 2aaa5f55                         SUB CH, [BP+SI+0x555f]
00162a3580: aa                               STOSB
00162a3581: 5f                               POP DI
00162a3582: 55                               PUSH BP
00162a3583: 55                               PUSH BP
00162a3584: 1f                               POP DS
00162a3585: 2a00                             SUB AL, [BX+SI]
00162a3587: 1f                               POP DS
00162a3588: 55                               PUSH BP
00162a3589: 55                               PUSH BP
00162a358a: 5f                               POP DI
00162a358b: 7faa                             JG 0xffd8
00162a358d: 5f                               POP DI
00162a358e: aa                               STOSB
00162a358f: 55                               PUSH BP
00162a3590: 3f                               AAS
00162a3591: 55                               PUSH BP
00162a3592: 003f                             ADD [BX], BH
00162a3594: 55                               PUSH BP
00162a3595: 8080808080                       ADD BYTE [BX+SI-0x7f80], 0x80
00162a359a: 80555f55                         ADC BYTE [DI+0x5f], 0x55
00162a359e: 55                               PUSH BP
00162a359f: 5f                               POP DI
00162a35a0: 7f55                             JG 0x98
00162a35a2: 5f                               POP DI
00162a35a3: 55                               PUSH BP
00162a35a4: 55                               PUSH BP
00162a35a5: 5f                               POP DI
00162a35a6: 55                               PUSH BP
00162a35a7: 55                               PUSH BP
00162a35a8: 5f                               POP DI
00162a35a9: 55                               PUSH BP
00162a35aa: 55                               PUSH BP
00162a35ab: 5f                               POP DI
00162a35ac: 55                               PUSH BP
00162a35ad: 55                               PUSH BP
00162a35ae: 3f                               AAS
00162a35af: 55                               PUSH BP
00162a35b0: 55                               PUSH BP
00162a35b1: 3f                               AAS
00162a35b2: 2a553f                           SUB DL, [DI+0x3f]
00162a35b5: 55                               PUSH BP
00162a35b6: 55                               PUSH BP
00162a35b7: 3f                               AAS
00162a35b8: 55                               PUSH BP
00162a35b9: 003f                             ADD [BX], BH
00162a35bb: 2a553f                           SUB DL, [DI+0x3f]
00162a35be: 55                               PUSH BP
00162a35bf: ff                               DB 0xff
00162a35c0: df                               DB 0xdf
00162a35c1: d4c0                             AAM 0xc0
00162a35c3: dcc0                             FADD ST0, ST0
00162a35c5: a4                               MOVSB
00162a35c6: a0a0aa                           MOV AL, [0xaaa0]
00162a35c9: bfaaaa                           MOV DI, 0xaaaa
00162a35cc: 9f                               LAHF
00162a35cd: aa                               STOSB
00162a35ce: aa                               STOSB
00162a35cf: bfaa80                           MOV DI, 0x80aa
00162a35d2: 8080808080                       ADD BYTE [BX+SI-0x7f80], 0x80
00162a35d7: 55                               PUSH BP
00162a35d8: 5f                               POP DI
00162a35d9: 55                               PUSH BP
00162a35da: a4                               MOVSB
00162a35db: a0a055                           MOV AL, [0x55a0]
00162a35de: 5f                               POP DI
00162a35df: 55                               PUSH BP
00162a35e0: a4                               MOVSB
00162a35e1: a0a055                           MOV AL, [0x55a0]
00162a35e4: 3f                               AAS
00162a35e5: 2aaa7f55                         SUB CH, [BP+SI+0x557f]
00162a35e9: aa                               STOSB
00162a35ea: 9f                               LAHF
00162a35eb: 7faa                             JG 0x38
00162a35ed: 7f55                             JG 0xe5
00162a35ef: aa                               STOSB
00162a35f0: 9f                               LAHF
00162a35f1: 7faa                             JG 0x3e
00162a35f3: 9f                               LAHF
00162a35f4: 7faa                             JG 0x41
00162a35f6: 7f55                             JG 0xee
00162a35f8: aa                               STOSB
00162a35f9: 7f55                             JG 0xf1
00162a35fb: aa                               STOSB
00162a35fc: 7f55                             JG 0xf4
00162a35fe: aa                               STOSB
00162a35ff: 7f55                             JG 0xf7
00162a3601: aa                               STOSB
00162a3602: 7f55                             JG 0xfa
00162a3604: aa                               STOSB
00162a3605: 7f55                             JG 0xfd
00162a3607: aa                               STOSB
00162a3608: 7f55                             JG 0x100
00162a360a: aa                               STOSB
00162a360b: 7f55                             JG 0x103
00162a360d: aa                               STOSB
00162a360e: 9f                               LAHF
00162a360f: 55                               PUSH BP
00162a3610: aa                               STOSB
00162a3611: 9f                               LAHF
00162a3612: 55                               PUSH BP
00162a3613: 55                               PUSH BP
00162a3614: 1f                               POP DS
00162a3615: 2a00                             SUB AL, [BX+SI]
00162a3617: 5f                               POP DI
00162a3618: 7f55                             JG 0x110
00162a361a: 9f                               LAHF
00162a361b: d4aa                             AAM 0xaa
00162a361d: bfd455                           MOV DI, 0x55d4
00162a3620: 9f                               LAHF
00162a3621: d455                             AAM 0x55
00162a3623: 9f                               LAHF
00162a3624: aa                               STOSB
00162a3625: 55                               PUSH BP
00162a3626: 7faa                             JG 0x73
00162a3628: 55                               PUSH BP
00162a3629: 9f                               LAHF
00162a362a: d455                             AAM 0x55
00162a362c: 7faa                             JG 0x79
00162a362e: 55                               PUSH BP
00162a362f: 7faa                             JG 0x7c
00162a3631: 55                               PUSH BP
00162a3632: 9f                               LAHF
00162a3633: aa                               STOSB
00162a3634: 007faa                           ADD [BX-0x56], BH
00162a3637: 55                               PUSH BP
00162a3638: 5f                               POP DI
00162a3639: 7f00                             JG 0xdc
00162a363b: 1f                               POP DS
00162a363c: 2a553f                           SUB DL, [DI+0x3f]
00162a363f: 2a553f                           SUB DL, [DI+0x3f]
00162a3642: 2aaa5f55                         SUB CH, [BP+SI+0x555f]
00162a3646: 55                               PUSH BP
00162a3647: 5f                               POP DI
00162a3648: 55                               PUSH BP
00162a3649: 55                               PUSH BP
00162a364a: 3f                               AAS
00162a364b: 2a555f                           SUB DL, [DI+0x5f]
00162a364e: 55                               PUSH BP
00162a364f: aa                               STOSB
00162a3650: 5f                               POP DI
00162a3651: 2aaa5f55                         SUB CH, [BP+SI+0x555f]
00162a3655: aa                               STOSB
00162a3656: 3f                               AAS
00162a3657: 55                               PUSH BP
00162a3658: 55                               PUSH BP
00162a3659: 3f                               AAS
00162a365a: 2ac0                             SUB AL, AL
00162a365c: dcc0                             FADD ST0, ST0
00162a365e: f0caa6aa                         RETF 0xaaa6
00162a3662: 3f                               AAS
00162a3663: 2aaa7f55                         SUB CH, [BP+SI+0x557f]
00162a3667: aa                               STOSB
00162a3668: 5f                               POP DI
00162a3669: 2a00                             SUB AL, [BX+SI]
00162a366b: 1f                               POP DS
00162a366c: 55                               PUSH BP
00162a366d: 55                               PUSH BP
00162a366e: 3f                               AAS
00162a366f: aa                               STOSB
00162a3670: 55                               PUSH BP
00162a3671: 5f                               POP DI
00162a3672: aa                               STOSB
00162a3673: 55                               PUSH BP
00162a3674: 3f                               AAS
00162a3675: 7f00                             JG 0x118
00162a3677: 3f                               AAS
00162a3678: 7f55                             JG 0x170
00162a367a: 3f                               AAS
00162a367b: 55                               PUSH BP
00162a367c: 55                               PUSH BP
00162a367d: 5f                               POP DI
00162a367e: 7f00                             JG 0x121
00162a3680: 5f                               POP DI
00162a3681: aa                               STOSB
00162a3682: 55                               PUSH BP
00162a3683: 5f                               POP DI
00162a3684: 7f00                             JG 0x127
00162a3686: 5f                               POP DI
00162a3687: aa                               STOSB
00162a3688: 55                               PUSH BP
00162a3689: 5f                               POP DI
00162a368a: aa                               STOSB
00162a368b: 005f7f                           ADD [BX+0x7f], BL
00162a368e: 55                               PUSH BP
00162a368f: 5f                               POP DI
00162a3690: aa                               STOSB
00162a3691: 005faa                           ADD [BX-0x56], BL
00162a3694: 55                               PUSH BP
00162a3695: 5f                               POP DI
00162a3696: aa                               STOSB
00162a3697: 003f                             ADD [BX], BH
00162a3699: 7fe3                             JG 0x11f
00162a369b: dfe0                             FNSTSW AX
00162a369d: 00553f                           ADD [DI+0x3f], DL
00162a36a0: 55                               PUSH BP
00162a36a1: 003f                             ADD [BX], BH
00162a36a3: 55                               PUSH BP
00162a36a4: 55                               PUSH BP
00162a36a5: 1f                               POP DS
00162a36a6: 55                               PUSH BP
00162a36a7: 003f                             ADD [BX], BH
00162a36a9: 55                               PUSH BP
00162a36aa: 55                               PUSH BP
00162a36ab: 1f                               POP DS
00162a36ac: 55                               PUSH BP
00162a36ad: 55                               PUSH BP
00162a36ae: 3f                               AAS
00162a36af: 55                               PUSH BP
00162a36b0: 001f                             ADD [BX], BL
00162a36b2: 55                               PUSH BP
00162a36b3: 55                               PUSH BP
00162a36b4: 3f                               AAS
00162a36b5: 55                               PUSH BP
00162a36b6: aa                               STOSB
00162a36b7: bfd455                           MOV DI, 0x55d4
00162a36ba: 7fd4                             JG 0x131
00162a36bc: 55                               PUSH BP
00162a36bd: 7faa                             JG 0x10a
00162a36bf: 55                               PUSH BP
00162a36c0: 5f                               POP DI
00162a36c1: aa                               STOSB
00162a36c2: 55                               PUSH BP
00162a36c3: 5f                               POP DI
00162a36c4: 7f55                             JG 0x1bc
00162a36c6: 3f                               AAS
00162a36c7: aa                               STOSB
00162a36c8: 55                               PUSH BP
00162a36c9: 5f                               POP DI
00162a36ca: aa                               STOSB
00162a36cb: 55                               PUSH BP
00162a36cc: 5f                               POP DI
00162a36cd: aa                               STOSB
00162a36ce: 005faa                           ADD [BX-0x56], BL
00162a36d1: 55                               PUSH BP
00162a36d2: 5f                               POP DI
00162a36d3: aa                               STOSB
00162a36d4: 003f                             ADD [BX], BH
00162a36d6: aa                               STOSB
00162a36d7: 55                               PUSH BP
00162a36d8: 3f                               AAS
00162a36d9: aa                               STOSB
00162a36da: 55                               PUSH BP
00162a36db: 1f                               POP DS
00162a36dc: 55                               PUSH BP
00162a36dd: 001f                             ADD [BX], BL
00162a36df: 55                               PUSH BP
00162a36e0: 808080aa9f                       ADD BYTE [BX+SI-0x5580], 0x9f
00162a36e5: 7f55                             JG 0x1dd
00162a36e7: 5f                               POP DI
00162a36e8: 2aaa5f55                         SUB CH, [BP+SI+0x555f]
00162a36ec: aa                               STOSB
00162a36ed: 5f                               POP DI
00162a36ee: 55                               PUSH BP
00162a36ef: 55                               PUSH BP
00162a36f0: 1f                               POP DS
00162a36f1: 2a00                             SUB AL, [BX+SI]
00162a36f3: 3f                               AAS
00162a36f4: 55                               PUSH BP
00162a36f5: 55                               PUSH BP
00162a36f6: 3f                               AAS
00162a36f7: 7faa                             JG 0x144
00162a36f9: 5f                               POP DI
00162a36fa: 7f00                             JG 0x19d
00162a36fc: 3f                               AAS
00162a36fd: 55                               PUSH BP
00162a36fe: 55                               PUSH BP
00162a36ff: 1f                               POP DS
00162a3700: 55                               PUSH BP
00162a3701: 55                               PUSH BP
00162a3702: 5f                               POP DI
00162a3703: 55                               PUSH BP
00162a3704: 808080555f                       ADD BYTE [BX+SI+0x5580], 0x5f
00162a3709: 55                               PUSH BP
00162a370a: 55                               PUSH BP
00162a370b: 5f                               POP DI
00162a370c: 55                               PUSH BP
00162a370d: 55                               PUSH BP
00162a370e: 3f                               AAS
00162a370f: 55                               PUSH BP
00162a3710: 55                               PUSH BP
00162a3711: 5f                               POP DI
00162a3712: 55                               PUSH BP
00162a3713: 55                               PUSH BP
00162a3714: 5f                               POP DI
00162a3715: 55                               PUSH BP
00162a3716: 55                               PUSH BP


===== Partition Table #1 =====
Boot flag: 0x3f 
Partition type: 0x55 (Invalid)
Starting Sector (LBA): 0x552a1f55 (1428823893)
Starting CHS: Cylinder: 319 Head: 85 Sector: 21
Ending CHS: Cylinder: 42 Head: 0 Sector: 63
Size in sectors: -0x3300aac1 (-855681729)

===== Partition Table #2 =====
Boot flag: 0xcc 
Partition type: 0x80 (Invalid)
Starting Sector (LBA): 0x9faaa0a0 (2678759584)
Starting CHS: Cylinder: 980 Head: 255 Sector: 31
Ending CHS: Cylinder: 676 Head: 128 Sector: 0
Size in sectors: 0x555f55aa (1432311210)

===== Partition Table #3 =====
Boot flag: 0x80 (Bootable)
Partition type: 0xa0 (Hibernation)
Starting Sector (LBA): 0xaabfaa80 (2864687744)
Starting CHS: Cylinder: 676 Head: 128 Sector: 0
Ending CHS: Cylinder: 640 Head: 160 Sector: 0
Size in sectors: -0x555f5f5c (-1432313692)

===== Partition Table #4 =====
Boot flag: 0x9f 
Partition type: 0x2a (Invalid)
Starting Sector (LBA): 0xaa7f9faa (2860490666)
Starting CHS: Cylinder: 319 Head: 127 Sector: 21
Ending CHS: Cylinder: 341 Head: 170 Sector: 63
Size in sectors: 0x7faa559f (2141869471)

***************************************************************************

***************************************************************************
Potential MBR at physical offset: 0x17ce695c
Disk Signature: ff-f0-fb-ff
Bootcode md5: f4600970b7d56c44a062a3e16596e83a
Bootcode (FULL) md5: f4600970b7d56c44a062a3e16596e83a
Disassembly of Bootable Code:
0017ce695c: df                               DB 0xdf
0017ce695d: d4aa                             AAM 0xaa
0017ce695f: bfd455                           MOV DI, 0x55d4
0017ce6962: 9f                               LAHF
0017ce6963: d455                             AAM 0x55
0017ce6965: 9f                               LAHF
0017ce6966: d455                             AAM 0x55
0017ce6968: 9f                               LAHF
0017ce6969: aa                               STOSB
0017ce696a: 55                               PUSH BP
0017ce696b: 7f7f                             JG 0x90
0017ce696d: 55                               PUSH BP
0017ce696e: 9f                               LAHF
0017ce696f: d480                             AAM 0x80
0017ce6971: 8080559faa                       ADD BYTE [BX+SI-0x60ab], 0xaa
0017ce6976: aa                               STOSB
0017ce6977: df                               DB 0xdf
0017ce6978: d4aa                             AAM 0xaa
0017ce697a: bfd4aa                           MOV DI, 0xaad4
0017ce697d: df                               DB 0xdf
0017ce697e: ffaadfd4                         JMP FAR WORD [BP+SI-0x2b21]
0017ce6982: aa                               STOSB
0017ce6983: bfd4aa                           MOV DI, 0xaad4
0017ce6986: df                               DB 0xdf
0017ce6987: ffaadfff                         JMP FAR WORD [BP+SI-0x21]
0017ce698b: aa                               STOSB
0017ce698c: bfd4aa                           MOV DI, 0xaad4
0017ce698f: bfd4aa                           MOV DI, 0xaad4
0017ce6992: df                               DB 0xdf
0017ce6993: d4ff                             AAM 0xff
0017ce6995: df                               DB 0xdf
0017ce6996: ffaadfff                         JMP FAR WORD [BP+SI-0x21]
0017ce699a: aa                               STOSB
0017ce699b: bfd4aa                           MOV DI, 0xaad4
0017ce699e: df                               DB 0xdf
0017ce699f: ffaadfd4                         JMP FAR WORD [BP+SI-0x2b21]
0017ce69a3: aa                               STOSB
0017ce69a4: df                               DB 0xdf
0017ce69a5: d4aa                             AAM 0xaa
0017ce69a7: df                               DB 0xdf
0017ce69a8: d4aa                             AAM 0xaa
0017ce69aa: df                               DB 0xdf
0017ce69ab: d4aa                             AAM 0xaa
0017ce69ad: bfd4aa                           MOV DI, 0xaad4
0017ce69b0: df                               DB 0xdf
0017ce69b1: d4aa                             AAM 0xaa
0017ce69b3: df                               DB 0xdf
0017ce69b4: d4aa                             AAM 0xaa
0017ce69b6: bfd4aa                           MOV DI, 0xaad4
0017ce69b9: df                               DB 0xdf
0017ce69ba: ffaadfd4                         JMP FAR WORD [BP+SI-0x2b21]
0017ce69be: aa                               STOSB
0017ce69bf: df                               DB 0xdf
0017ce69c0: d4aa                             AAM 0xaa
0017ce69c2: bfd4aa                           MOV DI, 0xaad4
0017ce69c5: df                               DB 0xdf
0017ce69c6: d4aa                             AAM 0xaa
0017ce69c8: bfd4e3                           MOV DI, 0xe3d4
0017ce69cb: dfe0                             FNSTSW AX
0017ce69cd: 00aa5f2a                         ADD [BP+SI+0x2a5f], CH
0017ce69d1: f0caa6aa                         RETF 0xaaa6
0017ce69d5: 9f                               LAHF
0017ce69d6: 55                               PUSH BP
0017ce69d7: ff9f55ff                         CALL FAR WORD [BX-0xab]
0017ce69db: cc                               INT 3
0017ce69dc: cc                               INT 3
0017ce69dd: aa                               STOSB
0017ce69de: 5f                               POP DI
0017ce69df: 2aaabfaa                         SUB CH, [BP+SI-0x5541]
0017ce69e3: f0caa6aa                         RETF 0xaaa6
0017ce69e7: 5f                               POP DI
0017ce69e8: 2a553f                           SUB DL, [DI+0x3f]
0017ce69eb: 2a555f                           SUB DL, [DI+0x5f]
0017ce69ee: 55                               PUSH BP
0017ce69ef: 55                               PUSH BP
0017ce69f0: 9f                               LAHF
0017ce69f1: aa                               STOSB
0017ce69f2: 55                               PUSH BP
0017ce69f3: bfd455                           MOV DI, 0x55d4
0017ce69f6: bfd455                           MOV DI, 0x55d4
0017ce69f9: bfd455                           MOV DI, 0x55d4
0017ce69fc: 9f                               LAHF
0017ce69fd: d400                             AAM 0x0
0017ce69ff: 7faa                             JG 0x4f
0017ce6a01: 55                               PUSH BP
0017ce6a02: 5f                               POP DI
0017ce6a03: 7ff0                             JG 0x99
0017ce6a05: fb                               STI
0017ce6a06: ffaadfd4                         JMP FAR WORD [BP+SI-0x2b21]
0017ce6a0a: 55                               PUSH BP
0017ce6a0b: df                               DB 0xdf
0017ce6a0c: d4aa                             AAM 0xaa
0017ce6a0e: bfd4aa                           MOV DI, 0xaad4
0017ce6a11: df                               DB 0xdf
0017ce6a12: ffaadfd4                         JMP FAR WORD [BP+SI-0x2b21]
0017ce6a16: aa                               STOSB
0017ce6a17: bfd4aa                           MOV DI, 0xaad4
0017ce6a1a: df                               DB 0xdf
0017ce6a1b: ffaadfd4                         JMP FAR WORD [BP+SI-0x2b21]
0017ce6a1f: aa                               STOSB
0017ce6a20: bfd4aa                           MOV DI, 0xaad4
0017ce6a23: df                               DB 0xdf
0017ce6a24: ffaabfaa                         JMP FAR WORD [BP+SI-0x5541]
0017ce6a28: 001f                             ADD [BX], BL
0017ce6a2a: 2a553f                           SUB DL, [DI+0x3f]
0017ce6a2d: 7f00                             JG 0xd3
0017ce6a2f: 5f                               POP DI
0017ce6a30: aa                               STOSB
0017ce6a31: 55                               PUSH BP
0017ce6a32: 3f                               AAS
0017ce6a33: 7f55                             JG 0x12e
0017ce6a35: 3f                               AAS
0017ce6a36: 7f00                             JG 0xdc
0017ce6a38: 5f                               POP DI
0017ce6a39: 7f55                             JG 0x134
0017ce6a3b: 3f                               AAS
0017ce6a3c: 7f55                             JG 0x137
0017ce6a3e: 5f                               POP DI
0017ce6a3f: 7f00                             JG 0xe5
0017ce6a41: 3f                               AAS
0017ce6a42: 7f55                             JG 0x13d
0017ce6a44: 3f                               AAS
0017ce6a45: 55                               PUSH BP
0017ce6a46: 003f                             ADD [BX], BH
0017ce6a48: 55                               PUSH BP
0017ce6a49: 55                               PUSH BP
0017ce6a4a: 3f                               AAS
0017ce6a4b: 55                               PUSH BP
0017ce6a4c: 009fd4f0                         ADD [BX-0xf2c], BL
0017ce6a50: fb                               STI
0017ce6a51: ff00                             INC WORD [BX+SI]
0017ce6a53: 7faa                             JG 0xa3
0017ce6a55: 55                               PUSH BP
0017ce6a56: 5f                               POP DI
0017ce6a57: aa                               STOSB
0017ce6a58: 55                               PUSH BP
0017ce6a59: 5f                               POP DI
0017ce6a5a: aa                               STOSB
0017ce6a5b: 005faa                           ADD [BX-0x56], BL
0017ce6a5e: 55                               PUSH BP
0017ce6a5f: 3f                               AAS
0017ce6a60: 55                               PUSH BP
0017ce6a61: 001f                             ADD [BX], BL
0017ce6a63: 2aaa5f55                         SUB CH, [BP+SI+0x555f]
0017ce6a67: aa                               STOSB
0017ce6a68: 3f                               AAS
0017ce6a69: 55                               PUSH BP
0017ce6a6a: aa                               STOSB
0017ce6a6b: 5f                               POP DI
0017ce6a6c: 55                               PUSH BP
0017ce6a6d: aa                               STOSB
0017ce6a6e: 5f                               POP DI
0017ce6a6f: 55                               PUSH BP
0017ce6a70: aa                               STOSB
0017ce6a71: 7f7f                             JG 0x196
0017ce6a73: aa                               STOSB
0017ce6a74: 5f                               POP DI
0017ce6a75: 55                               PUSH BP
0017ce6a76: aa                               STOSB
0017ce6a77: 5f                               POP DI
0017ce6a78: 55                               PUSH BP
0017ce6a79: 55                               PUSH BP
0017ce6a7a: 1f                               POP DS
0017ce6a7b: 2aaa9f7f                         SUB CH, [BP+SI+0x7f9f]
0017ce6a7f: ff                               DB 0xff
0017ce6a80: ff                               DB 0xff
0017ce6a81: fff0                             PUSH AX
0017ce6a83: caa6aa                           RETF 0xaaa6
0017ce6a86: 9f                               LAHF
0017ce6a87: 7faa                             JG 0xd7
0017ce6a89: 9f                               LAHF
0017ce6a8a: 7ff0                             JG 0x120
0017ce6a8c: caa6aa                           RETF 0xaaa6
0017ce6a8f: 9f                               LAHF
0017ce6a90: 7faa                             JG 0xe0
0017ce6a92: 7f55                             JG 0x18d
0017ce6a94: a4                               MOVSB
0017ce6a95: a0a0f0                           MOV AL, [0xf0a0]
0017ce6a98: caa6aa                           RETF 0xaaa6
0017ce6a9b: 9f                               LAHF
0017ce6a9c: aa                               STOSB
0017ce6a9d: f0caa6c0                         RETF 0xc0a6
0017ce6aa1: dcc0                             FADD ST0, ST0
0017ce6aa3: c0dcc0                           RCR AH, 0xc0
0017ce6aa6: ffcc                             DEC SP
0017ce6aa8: cc                               INT 3
0017ce6aa9: c0dcc0                           RCR AH, 0xc0
0017ce6aac: aa                               STOSB
0017ce6aad: 9f                               LAHF
0017ce6aae: aa                               STOSB
0017ce6aaf: f0caa6f0                         RETF 0xf0a6
0017ce6ab3: caa680                           RETF 0x80a6
0017ce6ab6: 8080001f2a                       ADD BYTE [BX+SI+0x1f00], 0x2a
0017ce6abb: ff                               DB 0xff
0017ce6abc: df                               DB 0xdf
0017ce6abd: d4aa                             AAM 0xaa
0017ce6abf: df                               DB 0xdf
0017ce6ac0: ffaabfd4                         JMP FAR WORD [BP+SI-0x2b41]
0017ce6ac4: 55                               PUSH BP
0017ce6ac5: bfd480                           MOV DI, 0x80d4
0017ce6ac8: 8080aadfff                       ADD BYTE [BX+SI-0x2056], 0xff
0017ce6acd: 55                               PUSH BP
0017ce6ace: 5f                               POP DI
0017ce6acf: 55                               PUSH BP
0017ce6ad0: 55                               PUSH BP
0017ce6ad1: 7faa                             JG 0x121
0017ce6ad3: 55                               PUSH BP
0017ce6ad4: 9f                               LAHF
0017ce6ad5: d480                             AAM 0x80
0017ce6ad7: 808055bfd4                       ADD BYTE [BX+SI-0x40ab], 0xd4
0017ce6adc: 55                               PUSH BP
0017ce6add: 5f                               POP DI
0017ce6ade: 55                               PUSH BP
0017ce6adf: 55                               PUSH BP
0017ce6ae0: 7f7f                             JG 0x205
0017ce6ae2: aa                               STOSB
0017ce6ae3: ff                               DB 0xff
0017ce6ae4: ffaadfd4                         JMP FAR WORD [BP+SI-0x2b21]
0017ce6ae8: aa                               STOSB
0017ce6ae9: bfd4aa                           MOV DI, 0xaad4
0017ce6aec: df                               DB 0xdf
0017ce6aed: d4aa                             AAM 0xaa
0017ce6aef: bfd4aa                           MOV DI, 0xaad4
0017ce6af2: df                               DB 0xdf
0017ce6af3: ffaadfd4                         JMP FAR WORD [BP+SI-0x2b21]
0017ce6af7: aa                               STOSB
0017ce6af8: df                               DB 0xdf
0017ce6af9: d4aa                             AAM 0xaa
0017ce6afb: df                               DB 0xdf
0017ce6afc: ffaadfd4                         JMP FAR WORD [BP+SI-0x2b21]
0017ce6b00: aa                               STOSB
0017ce6b01: df                               DB 0xdf
0017ce6b02: ffaadfd4                         JMP FAR WORD [BP+SI-0x2b21]
0017ce6b06: aa                               STOSB
0017ce6b07: bfd4aa                           MOV DI, 0xaad4
0017ce6b0a: df                               DB 0xdf
0017ce6b0b: d4aa                             AAM 0xaa
0017ce6b0d: df                               DB 0xdf
0017ce6b0e: d4aa                             AAM 0xaa
0017ce6b10: bfd4aa                           MOV DI, 0xaad4
0017ce6b13: df                               DB 0xdf


===== Partition Table #1 =====
Boot flag: 0xd4 
Partition type: 0xf0 (Invalid)
Starting Sector (LBA): 0xbfaad4df (3215643871)
Starting CHS: Cylinder: 980 Head: 170 Sector: 31
Ending CHS: Cylinder: 938 Head: 251 Sector: 63
Size in sectors: -0x2b20552c (-723539244)

===== Partition Table #2 =====
Boot flag: 0xaa 
Partition type: 0xdf (DG/UX virtual disk manager partition)
Starting Sector (LBA): 0xffdfaad4 (4292848340)
Starting CHS: Cylinder: 938 Head: 223 Sector: 63
Ending CHS: Cylinder: 735 Head: 212 Sector: 42
Size in sectors: 0xe0dfe3 (14737379)

===== Partition Table #3 =====
Boot flag: 0x55 
Partition type: 0x7f (Invalid)
Starting Sector (LBA): 0x559faa2a (1436527146)
Starting CHS: Cylinder: 170 Head: 95 Sector: 42
Ending CHS: Cylinder: 639 Head: 85 Sector: 42
Size in sectors: -0x7f804001 (-2139111425)

===== Partition Table #4 =====
Boot flag: 0x80 (Bootable)
Partition type: 0xa6 (OpenBSD)
Starting Sector (LBA): 0x552a7faa (1428848554)
Starting CHS: Cylinder: 970 Head: 0 Sector: 48
Ending CHS: Cylinder: 980 Head: 255 Sector: 31
Size in sectors: 0x5f552a3f (1599416895)

***************************************************************************

***************************************************************************
Potential MBR at physical offset: 0x18362ccb
Disk Signature: 5f-55-55-5f
Bootcode md5: fe79c26c20da25298db1c2fe4834dca7
Bootcode (FULL) md5: fe79c26c20da25298db1c2fe4834dca7
Disassembly of Bootable Code:
0018362ccb: 55                               PUSH BP
0018362ccc: 5f                               POP DI
0018362ccd: aa                               STOSB
0018362cce: 55                               PUSH BP
0018362ccf: 5f                               POP DI
0018362cd0: aa                               STOSB
0018362cd1: 55                               PUSH BP
0018362cd2: 5f                               POP DI
0018362cd3: aa                               STOSB
0018362cd4: 55                               PUSH BP
0018362cd5: 5f                               POP DI
0018362cd6: aa                               STOSB
0018362cd7: 55                               PUSH BP
0018362cd8: 5f                               POP DI
0018362cd9: aa                               STOSB
0018362cda: 55                               PUSH BP
0018362cdb: 5f                               POP DI
0018362cdc: aa                               STOSB
0018362cdd: 003f                             ADD [BX], BH
0018362cdf: 7f55                             JG 0x6b
0018362ce1: 5f                               POP DI
0018362ce2: 7f55                             JG 0x6e
0018362ce4: 3f                               AAS
0018362ce5: aa                               STOSB
0018362ce6: 55                               PUSH BP
0018362ce7: 3f                               AAS
0018362ce8: aa                               STOSB
0018362ce9: 001f                             ADD [BX], BL
0018362ceb: 2aaa5f55                         SUB CH, [BP+SI+0x555f]
0018362cef: aa                               STOSB
0018362cf0: 7f55                             JG 0x7c
0018362cf2: 55                               PUSH BP
0018362cf3: 3f                               AAS
0018362cf4: 2aaa5f55                         SUB CH, [BP+SI+0x555f]
0018362cf8: 55                               PUSH BP
0018362cf9: 5f                               POP DI
0018362cfa: 2a00                             SUB AL, [BX+SI]
0018362cfc: 3f                               AAS
0018362cfd: 55                               PUSH BP
0018362cfe: 55                               PUSH BP
0018362cff: 3f                               AAS
0018362d00: 55                               PUSH BP
0018362d01: 55                               PUSH BP
0018362d02: 3f                               AAS
0018362d03: 7f00                             JG 0x3a
0018362d05: 3f                               AAS
0018362d06: 55                               PUSH BP
0018362d07: 55                               PUSH BP
0018362d08: 3f                               AAS
0018362d09: 55                               PUSH BP
0018362d0a: 001f                             ADD [BX], BL
0018362d0c: 2a808080                         SUB AL, [BX+SI-0x7f80]
0018362d10: 808080555f                       ADD BYTE [BX+SI+0x5580], 0x5f
0018362d15: 55                               PUSH BP
0018362d16: 55                               PUSH BP
0018362d17: 5f                               POP DI
0018362d18: 55                               PUSH BP
0018362d19: 55                               PUSH BP
0018362d1a: 5f                               POP DI
0018362d1b: 55                               PUSH BP
0018362d1c: 55                               PUSH BP
0018362d1d: 5f                               POP DI
0018362d1e: 55                               PUSH BP
0018362d1f: 55                               PUSH BP
0018362d20: 5f                               POP DI
0018362d21: 55                               PUSH BP
0018362d22: 55                               PUSH BP
0018362d23: 5f                               POP DI
0018362d24: 55                               PUSH BP
0018362d25: 55                               PUSH BP
0018362d26: 5f                               POP DI
0018362d27: 55                               PUSH BP
0018362d28: 55                               PUSH BP
0018362d29: 3f                               AAS
0018362d2a: 2a00                             SUB AL, [BX+SI]
0018362d2c: 3f                               AAS
0018362d2d: 55                               PUSH BP
0018362d2e: 55                               PUSH BP
0018362d2f: 3f                               AAS
0018362d30: 2a551f                           SUB DL, [DI+0x1f]
0018362d33: 2a808080                         SUB AL, [BX+SI-0x7f80]
0018362d37: ff                               DB 0xff
0018362d38: ffd4                             CALL SP
0018362d3a: a4                               MOVSB
0018362d3b: a0a055                           MOV AL, [0x55a0]
0018362d3e: 3f                               AAS
0018362d3f: 2aaabfd4                         SUB CH, [BP+SI-0x2b41]
0018362d43: 55                               PUSH BP
0018362d44: 5f                               POP DI
0018362d45: 55                               PUSH BP
0018362d46: 808080a4a0                       ADD BYTE [BX+SI-0x5b80], 0xa0
0018362d4b: a0555f                           MOV AL, [0x5f55]
0018362d4e: 55                               PUSH BP
0018362d4f: a4                               MOVSB
0018362d50: a0a0a4                           MOV AL, [0xa4a0]
0018362d53: a0a0aa                           MOV AL, [0xaaa0]
0018362d56: 7f7f                             JG 0x10c
0018362d58: 55                               PUSH BP
0018362d59: 5f                               POP DI
0018362d5a: 55                               PUSH BP
0018362d5b: 55                               PUSH BP
0018362d5c: 5f                               POP DI
0018362d5d: 55                               PUSH BP
0018362d5e: aa                               STOSB
0018362d5f: 9f                               LAHF
0018362d60: 7faa                             JG 0x41
0018362d62: 9f                               LAHF
0018362d63: 55                               PUSH BP
0018362d64: aa                               STOSB
0018362d65: 9f                               LAHF
0018362d66: 7fff                             JG 0x9c
0018362d68: 9f                               LAHF
0018362d69: 7faa                             JG 0x4a
0018362d6b: 9f                               LAHF
0018362d6c: 7faa                             JG 0x4d
0018362d6e: 9f                               LAHF
0018362d6f: 55                               PUSH BP
0018362d70: aa                               STOSB
0018362d71: 9f                               LAHF
0018362d72: 7faa                             JG 0x53
0018362d74: 9f                               LAHF
0018362d75: 7faa                             JG 0x56
0018362d77: 9f                               LAHF
0018362d78: 7faa                             JG 0x59
0018362d7a: 9f                               LAHF
0018362d7b: 7faa                             JG 0x5c
0018362d7d: 7f55                             JG 0x109
0018362d7f: 55                               PUSH BP
0018362d80: 5f                               POP DI
0018362d81: 2aaa7f55                         SUB CH, [BP+SI+0x557f]
0018362d85: aa                               STOSB
0018362d86: 7f55                             JG 0x112
0018362d88: 55                               PUSH BP
0018362d89: 5f                               POP DI
0018362d8a: 2a553f                           SUB DL, [DI+0x3f]
0018362d8d: 2a00                             SUB AL, [BX+SI]
0018362d8f: 5f                               POP DI
0018362d90: 7f55                             JG 0x11c
0018362d92: 7fd4                             JG 0x9d
0018362d94: 007faa                           ADD [BX-0x56], BH
0018362d97: 55                               PUSH BP
0018362d98: 7faa                             JG 0x79
0018362d9a: 55                               PUSH BP
0018362d9b: 7faa                             JG 0x7c
0018362d9d: 55                               PUSH BP
0018362d9e: 9f                               LAHF
0018362d9f: aa                               STOSB
0018362da0: 55                               PUSH BP
0018362da1: 5f                               POP DI
0018362da2: aa                               STOSB
0018362da3: 55                               PUSH BP
0018362da4: 9f                               LAHF
0018362da5: aa                               STOSB
0018362da6: 007faa                           ADD [BX-0x56], BH
0018362da9: 55                               PUSH BP
0018362daa: 7faa                             JG 0x8b
0018362dac: 005faa                           ADD [BX-0x56], BL
0018362daf: 55                               PUSH BP
0018362db0: 5f                               POP DI
0018362db1: 55                               PUSH BP
0018362db2: 001f                             ADD [BX], BL
0018362db4: 2aaa5f2a                         SUB CH, [BP+SI+0x2a5f]
0018362db8: 55                               PUSH BP
0018362db9: 5f                               POP DI
0018362dba: 55                               PUSH BP
0018362dbb: 55                               PUSH BP
0018362dbc: 5f                               POP DI
0018362dbd: 2a553f                           SUB DL, [DI+0x3f]
0018362dc0: 55                               PUSH BP
0018362dc1: 55                               PUSH BP
0018362dc2: 3f                               AAS
0018362dc3: 2a553f                           SUB DL, [DI+0x3f]
0018362dc6: 2aaa5f55                         SUB CH, [BP+SI+0x555f]
0018362dca: aa                               STOSB
0018362dcb: 5f                               POP DI
0018362dcc: 55                               PUSH BP
0018362dcd: 55                               PUSH BP
0018362dce: 3f                               AAS
0018362dcf: 55                               PUSH BP
0018362dd0: 55                               PUSH BP
0018362dd1: 3f                               AAS
0018362dd2: 2aaa7f55                         SUB CH, [BP+SI+0x557f]
0018362dd6: aa                               STOSB
0018362dd7: 9f                               LAHF
0018362dd8: 7faa                             JG 0xb9
0018362dda: 5f                               POP DI
0018362ddb: 2a555f                           SUB DL, [DI+0x5f]
0018362dde: 55                               PUSH BP
0018362ddf: 003f                             ADD [BX], BH
0018362de1: 2a555f                           SUB DL, [DI+0x5f]
0018362de4: aa                               STOSB
0018362de5: 005faa                           ADD [BX-0x56], BL
0018362de8: 55                               PUSH BP
0018362de9: 5f                               POP DI
0018362dea: d400                             AAM 0x0
0018362dec: 5f                               POP DI
0018362ded: aa                               STOSB
0018362dee: 005fd4                           ADD [BX-0x2c], BL
0018362df1: 005faa                           ADD [BX-0x56], BL
0018362df4: 005faa                           ADD [BX-0x56], BL
0018362df7: 005faa                           ADD [BX-0x56], BL
0018362dfa: 55                               PUSH BP
0018362dfb: 5f                               POP DI
0018362dfc: aa                               STOSB
0018362dfd: 005f7f                           ADD [BX+0x7f], BL
0018362e00: 55                               PUSH BP
0018362e01: 5f                               POP DI
0018362e02: 7f00                             JG 0x139
0018362e04: 5f                               POP DI
0018362e05: 7f55                             JG 0x191
0018362e07: 3f                               AAS
0018362e08: 7f55                             JG 0x194
0018362e0a: 3f                               AAS
0018362e0b: 55                               PUSH BP
0018362e0c: 55                               PUSH BP
0018362e0d: 3f                               AAS
0018362e0e: 55                               PUSH BP
0018362e0f: 55                               PUSH BP
0018362e10: 3f                               AAS
0018362e11: 55                               PUSH BP
0018362e12: e3df                             JCXZ 0x128
0018362e14: e000                             LOOPNZ 0x14b
0018362e16: 55                               PUSH BP
0018362e17: 3f                               AAS
0018362e18: 55                               PUSH BP
0018362e19: 55                               PUSH BP
0018362e1a: 3f                               AAS
0018362e1b: 55                               PUSH BP
0018362e1c: 003f                             ADD [BX], BH
0018362e1e: 55                               PUSH BP
0018362e1f: 55                               PUSH BP
0018362e20: 3f                               AAS
0018362e21: 55                               PUSH BP
0018362e22: 003f                             ADD [BX], BH
0018362e24: 55                               PUSH BP
0018362e25: 55                               PUSH BP
0018362e26: 3f                               AAS
0018362e27: 55                               PUSH BP
0018362e28: 55                               PUSH BP
0018362e29: 3f                               AAS
0018362e2a: 7f00                             JG 0x161
0018362e2c: 3f                               AAS
0018362e2d: 55                               PUSH BP
0018362e2e: 55                               PUSH BP
0018362e2f: 5f                               POP DI
0018362e30: 7f55                             JG 0x1bc
0018362e32: 7fd4                             JG 0x13d
0018362e34: 55                               PUSH BP
0018362e35: 5f                               POP DI
0018362e36: aa                               STOSB
0018362e37: 55                               PUSH BP
0018362e38: 5f                               POP DI
0018362e39: aa                               STOSB
0018362e3a: 55                               PUSH BP
0018362e3b: 5f                               POP DI
0018362e3c: aa                               STOSB
0018362e3d: 55                               PUSH BP
0018362e3e: 5f                               POP DI
0018362e3f: aa                               STOSB
0018362e40: 55                               PUSH BP
0018362e41: 7faa                             JG 0x122
0018362e43: 55                               PUSH BP
0018362e44: 5f                               POP DI
0018362e45: aa                               STOSB
0018362e46: 55                               PUSH BP
0018362e47: 5f                               POP DI
0018362e48: aa                               STOSB
0018362e49: 55                               PUSH BP
0018362e4a: 5f                               POP DI
0018362e4b: aa                               STOSB
0018362e4c: 55                               PUSH BP
0018362e4d: 3f                               AAS
0018362e4e: 7f00                             JG 0x185
0018362e50: 3f                               AAS
0018362e51: d455                             AAM 0x55
0018362e53: 5f                               POP DI
0018362e54: 7f00                             JG 0x18b
0018362e56: 3f                               AAS
0018362e57: 2a555f                           SUB DL, [DI+0x5f]
0018362e5a: 55                               PUSH BP
0018362e5b: aa                               STOSB
0018362e5c: 7f55                             JG 0x1e8
0018362e5e: 55                               PUSH BP
0018362e5f: 3f                               AAS
0018362e60: 2aaa5f55                         SUB CH, [BP+SI+0x555f]
0018362e64: aa                               STOSB
0018362e65: 5f                               POP DI
0018362e66: 55                               PUSH BP
0018362e67: 55                               PUSH BP
0018362e68: 1f                               POP DS
0018362e69: 2a00                             SUB AL, [BX+SI]
0018362e6b: 3f                               AAS
0018362e6c: 55                               PUSH BP
0018362e6d: 55                               PUSH BP
0018362e6e: 3f                               AAS
0018362e6f: 55                               PUSH BP
0018362e70: 55                               PUSH BP
0018362e71: 3f                               AAS
0018362e72: 55                               PUSH BP
0018362e73: 55                               PUSH BP
0018362e74: 3f                               AAS
0018362e75: 55                               PUSH BP
0018362e76: 001f                             ADD [BX], BL
0018362e78: 2a808080                         SUB AL, [BX+SI-0x7f80]
0018362e7c: 808080555f                       ADD BYTE [BX+SI+0x5580], 0x5f
0018362e81: 55                               PUSH BP
0018362e82: 55                               PUSH BP


===== Partition Table #1 =====
Boot flag: 0x5f 
Partition type: 0x55 (Invalid)
Starting Sector (LBA): 0x55553f55 (1431650133)
Starting CHS: Cylinder: 351 Head: 85 Sector: 21
Ending CHS: Cylinder: 85 Head: 85 Sector: 63
Size in sectors: 0x3f55553f (1062556991)

===== Partition Table #2 =====
Boot flag: 0x2a 
Partition type: 0x55 (Invalid)
Starting Sector (LBA): 0xffff555f (4294923615)
Starting CHS: Cylinder: 42 Head: 0 Sector: 63
Ending CHS: Cylinder: 85 Head: 31 Sector: 42
Size in sectors: -0x55605501 (-1432376577)

===== Partition Table #3 =====
Boot flag: 0x55 
Partition type: 0xdc (Invalid)
Starting Sector (LBA): 0x808080a0 (2155905184)
Starting CHS: Cylinder: 448 Head: 95 Sector: 21
Ending CHS: Cylinder: 672 Head: 192 Sector: 36
Size in sectors: -0x7f5f5f5c (-2136956764)

===== Partition Table #4 =====
Boot flag: 0x80 (Bootable)
Partition type: 0xa0 (Hibernation)
Starting Sector (LBA): 0x55808080 (1434484864)
Starting CHS: Cylinder: 672 Head: 128 Sector: 36
Ending CHS: Cylinder: 640 Head: 128 Sector: 0
Size in sectors: 0x5f55555f (1599427935)

***************************************************************************

***************************************************************************
Potential MBR at physical offset: 0x19ab015f
Disk Signature: 3f-55-55-3f
Bootcode md5: 3d10ee6cc0d1c41303aa3b370d7fdbcb
Bootcode (FULL) md5: 3d10ee6cc0d1c41303aa3b370d7fdbcb
Disassembly of Bootable Code:
0019ab015f: 005901                           ADD [BX+DI+0x1], BL
0019ab0162: 0000                             ADD [BX+SI], AL
0019ab0164: 5a                               POP DX
0019ab0165: 0100                             ADD [BX+SI], AX
0019ab0167: 005b01                           ADD [BP+DI+0x1], BL
0019ab016a: 0000                             ADD [BX+SI], AL
0019ab016c: 5c                               POP SP
0019ab016d: 0100                             ADD [BX+SI], AX
0019ab016f: 005d01                           ADD [DI+0x1], BL
0019ab0172: 0000                             ADD [BX+SI], AL
0019ab0174: 5e                               POP SI
0019ab0175: 0100                             ADD [BX+SI], AX
0019ab0177: 005f01                           ADD [BX+0x1], BL
0019ab017a: 0000                             ADD [BX+SI], AL
0019ab017c: 60                               PUSHA
0019ab017d: 0100                             ADD [BX+SI], AX
0019ab017f: 006101                           ADD [BX+DI+0x1], AH
0019ab0182: 0000                             ADD [BX+SI], AL
0019ab0184: 6201                             BOUND AX, [BX+DI]
0019ab0186: 0000                             ADD [BX+SI], AL
0019ab0188: 6301                             ARPL [BX+DI], AX
0019ab018a: 0000                             ADD [BX+SI], AL
0019ab018c: 640100                           ADD [FS:BX+SI], AX
0019ab018f: 006501                           ADD [DI+0x1], AH
0019ab0192: 0000                             ADD [BX+SI], AL
0019ab0194: 660100                           ADD [BX+SI], EAX
0019ab0197: 006701                           ADD [BX+0x1], AH
0019ab019a: 0000                             ADD [BX+SI], AL
0019ab019c: 680100                           PUSH WORD 0x1
0019ab019f: 006901                           ADD [BX+DI+0x1], CH
0019ab01a2: 0000                             ADD [BX+SI], AL
0019ab01a4: 6a01                             PUSH 0x1
0019ab01a6: 0000                             ADD [BX+SI], AL
0019ab01a8: fe                               DB 0xfe
0019ab01a9: ff                               DB 0xff
0019ab01aa: ff                               DB 0xff
0019ab01ab: ff                               DB 0xff
0019ab01ac: fe                               DB 0xfe
0019ab01ad: ff                               DB 0xff
0019ab01ae: ff                               DB 0xff
0019ab01af: ff                               DB 0xff
0019ab01b0: fe                               DB 0xfe
0019ab01b1: ff                               DB 0xff
0019ab01b2: ff                               DB 0xff
0019ab01b3: ff850100                         INC WORD [DI+0x1]
0019ab01b7: 006f01                           ADD [BX+0x1], CH
0019ab01ba: 0000                             ADD [BX+SI], AL
0019ab01bc: 7001                             JO 0x60
0019ab01be: 0000                             ADD [BX+SI], AL
0019ab01c0: 7901                             JNS 0x64
0019ab01c2: 0000                             ADD [BX+SI], AL
0019ab01c4: 7201                             JB 0x68
0019ab01c6: 0000                             ADD [BX+SI], AL
0019ab01c8: 7301                             JAE 0x6c
0019ab01ca: 0000                             ADD [BX+SI], AL
0019ab01cc: 7401                             JZ 0x70
0019ab01ce: 0000                             ADD [BX+SI], AL
0019ab01d0: 7501                             JNZ 0x74
0019ab01d2: 0000                             ADD [BX+SI], AL
0019ab01d4: 7601                             JBE 0x78
0019ab01d6: 0000                             ADD [BX+SI], AL
0019ab01d8: 7701                             JA 0x7c
0019ab01da: 0000                             ADD [BX+SI], AL
0019ab01dc: 7801                             JS 0x80
0019ab01de: 0000                             ADD [BX+SI], AL
0019ab01e0: 6b0100                           IMUL AX, [BX+DI], 0x0
0019ab01e3: 00830100                         ADD [BP+DI+0x1], AL
0019ab01e7: 00fd                             ADD CH, BH
0019ab01e9: ff                               DB 0xff
0019ab01ea: ff                               DB 0xff
0019ab01eb: ff                               DB 0xff
0019ab01ec: 7c01                             JL 0x90
0019ab01ee: 0000                             ADD [BX+SI], AL
0019ab01f0: 7d01                             JGE 0x94
0019ab01f2: 0000                             ADD [BX+SI], AL
0019ab01f4: 7e01                             JLE 0x98
0019ab01f6: 0000                             ADD [BX+SI], AL
0019ab01f8: 7f01                             JG 0x9c
0019ab01fa: 0000                             ADD [BX+SI], AL
0019ab01fc: 800100                           ADD BYTE [BX+DI], 0x0
0019ab01ff: 0055aa                           ADD [DI-0x56], DL
0019ab0202: 7f55                             JG 0xfa
0019ab0204: aa                               STOSB
0019ab0205: 7f55                             JG 0xfd
0019ab0207: aa                               STOSB
0019ab0208: 7f55                             JG 0x100
0019ab020a: aa                               STOSB
0019ab020b: 7f55                             JG 0x103
0019ab020d: aa                               STOSB
0019ab020e: 9f                               LAHF
0019ab020f: 55                               PUSH BP
0019ab0210: aa                               STOSB
0019ab0211: 9f                               LAHF
0019ab0212: 55                               PUSH BP
0019ab0213: 55                               PUSH BP
0019ab0214: 1f                               POP DS
0019ab0215: 2a00                             SUB AL, [BX+SI]
0019ab0217: 5f                               POP DI
0019ab0218: 7f55                             JG 0x110
0019ab021a: 9f                               LAHF
0019ab021b: d4aa                             AAM 0xaa
0019ab021d: bfd455                           MOV DI, 0x55d4
0019ab0220: 9f                               LAHF
0019ab0221: d455                             AAM 0x55
0019ab0223: 9f                               LAHF
0019ab0224: aa                               STOSB
0019ab0225: 55                               PUSH BP
0019ab0226: 7faa                             JG 0x73
0019ab0228: 55                               PUSH BP
0019ab0229: 9f                               LAHF
0019ab022a: d455                             AAM 0x55
0019ab022c: 7faa                             JG 0x79
0019ab022e: 55                               PUSH BP
0019ab022f: 7faa                             JG 0x7c
0019ab0231: 55                               PUSH BP
0019ab0232: 9f                               LAHF
0019ab0233: aa                               STOSB
0019ab0234: 007faa                           ADD [BX-0x56], BH
0019ab0237: 55                               PUSH BP
0019ab0238: 5f                               POP DI
0019ab0239: 7f00                             JG 0xdc
0019ab023b: 1f                               POP DS
0019ab023c: 2a553f                           SUB DL, [DI+0x3f]
0019ab023f: 2a553f                           SUB DL, [DI+0x3f]
0019ab0242: 2aaa5f55                         SUB CH, [BP+SI+0x555f]
0019ab0246: 55                               PUSH BP
0019ab0247: 5f                               POP DI
0019ab0248: 55                               PUSH BP
0019ab0249: 55                               PUSH BP
0019ab024a: 3f                               AAS
0019ab024b: 2a555f                           SUB DL, [DI+0x5f]
0019ab024e: 55                               PUSH BP
0019ab024f: aa                               STOSB
0019ab0250: 5f                               POP DI
0019ab0251: 2aaa5f55                         SUB CH, [BP+SI+0x555f]
0019ab0255: aa                               STOSB
0019ab0256: 3f                               AAS
0019ab0257: 55                               PUSH BP
0019ab0258: 55                               PUSH BP
0019ab0259: 3f                               AAS
0019ab025a: 2ac0                             SUB AL, AL
0019ab025c: dcc0                             FADD ST0, ST0
0019ab025e: f0caa6aa                         RETF 0xaaa6
0019ab0262: 3f                               AAS
0019ab0263: 2aaa7f55                         SUB CH, [BP+SI+0x557f]
0019ab0267: aa                               STOSB
0019ab0268: 5f                               POP DI
0019ab0269: 2a00                             SUB AL, [BX+SI]
0019ab026b: 1f                               POP DS
0019ab026c: 55                               PUSH BP
0019ab026d: 55                               PUSH BP
0019ab026e: 3f                               AAS
0019ab026f: aa                               STOSB
0019ab0270: 55                               PUSH BP
0019ab0271: 5f                               POP DI
0019ab0272: aa                               STOSB
0019ab0273: 55                               PUSH BP
0019ab0274: 3f                               AAS
0019ab0275: 7f00                             JG 0x118
0019ab0277: 3f                               AAS
0019ab0278: 7f55                             JG 0x170
0019ab027a: 3f                               AAS
0019ab027b: 55                               PUSH BP
0019ab027c: 55                               PUSH BP
0019ab027d: 5f                               POP DI
0019ab027e: 7f00                             JG 0x121
0019ab0280: 5f                               POP DI
0019ab0281: aa                               STOSB
0019ab0282: 55                               PUSH BP
0019ab0283: 5f                               POP DI
0019ab0284: 7f00                             JG 0x127
0019ab0286: 5f                               POP DI
0019ab0287: aa                               STOSB
0019ab0288: 55                               PUSH BP
0019ab0289: 5f                               POP DI
0019ab028a: aa                               STOSB
0019ab028b: 005f7f                           ADD [BX+0x7f], BL
0019ab028e: 55                               PUSH BP
0019ab028f: 5f                               POP DI
0019ab0290: aa                               STOSB
0019ab0291: 005faa                           ADD [BX-0x56], BL
0019ab0294: 55                               PUSH BP
0019ab0295: 5f                               POP DI
0019ab0296: aa                               STOSB
0019ab0297: 003f                             ADD [BX], BH
0019ab0299: 7fe3                             JG 0x11f
0019ab029b: dfe0                             FNSTSW AX
0019ab029d: 00553f                           ADD [DI+0x3f], DL
0019ab02a0: 55                               PUSH BP
0019ab02a1: 003f                             ADD [BX], BH
0019ab02a3: 55                               PUSH BP
0019ab02a4: 55                               PUSH BP
0019ab02a5: 1f                               POP DS
0019ab02a6: 55                               PUSH BP
0019ab02a7: 003f                             ADD [BX], BH
0019ab02a9: 55                               PUSH BP
0019ab02aa: 55                               PUSH BP
0019ab02ab: 1f                               POP DS
0019ab02ac: 55                               PUSH BP
0019ab02ad: 55                               PUSH BP
0019ab02ae: 3f                               AAS
0019ab02af: 55                               PUSH BP
0019ab02b0: 001f                             ADD [BX], BL
0019ab02b2: 55                               PUSH BP
0019ab02b3: 55                               PUSH BP
0019ab02b4: 3f                               AAS
0019ab02b5: 55                               PUSH BP
0019ab02b6: aa                               STOSB
0019ab02b7: bfd455                           MOV DI, 0x55d4
0019ab02ba: 7fd4                             JG 0x131
0019ab02bc: 55                               PUSH BP
0019ab02bd: 7faa                             JG 0x10a
0019ab02bf: 55                               PUSH BP
0019ab02c0: 5f                               POP DI
0019ab02c1: aa                               STOSB
0019ab02c2: 55                               PUSH BP
0019ab02c3: 5f                               POP DI
0019ab02c4: 7f55                             JG 0x1bc
0019ab02c6: 3f                               AAS
0019ab02c7: aa                               STOSB
0019ab02c8: 55                               PUSH BP
0019ab02c9: 5f                               POP DI
0019ab02ca: aa                               STOSB
0019ab02cb: 55                               PUSH BP
0019ab02cc: 5f                               POP DI
0019ab02cd: aa                               STOSB
0019ab02ce: 005faa                           ADD [BX-0x56], BL
0019ab02d1: 55                               PUSH BP
0019ab02d2: 5f                               POP DI
0019ab02d3: aa                               STOSB
0019ab02d4: 003f                             ADD [BX], BH
0019ab02d6: aa                               STOSB
0019ab02d7: 55                               PUSH BP
0019ab02d8: 3f                               AAS
0019ab02d9: aa                               STOSB
0019ab02da: 55                               PUSH BP
0019ab02db: 1f                               POP DS
0019ab02dc: 55                               PUSH BP
0019ab02dd: 001f                             ADD [BX], BL
0019ab02df: 55                               PUSH BP
0019ab02e0: 808080aa9f                       ADD BYTE [BX+SI-0x5580], 0x9f
0019ab02e5: 7f55                             JG 0x1dd
0019ab02e7: 5f                               POP DI
0019ab02e8: 2aaa5f55                         SUB CH, [BP+SI+0x555f]
0019ab02ec: aa                               STOSB
0019ab02ed: 5f                               POP DI
0019ab02ee: 55                               PUSH BP
0019ab02ef: 55                               PUSH BP
0019ab02f0: 1f                               POP DS
0019ab02f1: 2a00                             SUB AL, [BX+SI]
0019ab02f3: 3f                               AAS
0019ab02f4: 55                               PUSH BP
0019ab02f5: 55                               PUSH BP
0019ab02f6: 3f                               AAS
0019ab02f7: 7faa                             JG 0x144
0019ab02f9: 5f                               POP DI
0019ab02fa: 7f00                             JG 0x19d
0019ab02fc: 3f                               AAS
0019ab02fd: 55                               PUSH BP
0019ab02fe: 55                               PUSH BP
0019ab02ff: 1f                               POP DS
0019ab0300: 55                               PUSH BP
0019ab0301: 55                               PUSH BP
0019ab0302: 5f                               POP DI
0019ab0303: 55                               PUSH BP
0019ab0304: 808080555f                       ADD BYTE [BX+SI+0x5580], 0x5f
0019ab0309: 55                               PUSH BP
0019ab030a: 55                               PUSH BP
0019ab030b: 5f                               POP DI
0019ab030c: 55                               PUSH BP
0019ab030d: 55                               PUSH BP
0019ab030e: 3f                               AAS
0019ab030f: 55                               PUSH BP
0019ab0310: 55                               PUSH BP
0019ab0311: 5f                               POP DI
0019ab0312: 55                               PUSH BP
0019ab0313: 55                               PUSH BP
0019ab0314: 5f                               POP DI
0019ab0315: 55                               PUSH BP
0019ab0316: 55                               PUSH BP


===== Partition Table #1 =====
Boot flag: 0x3f 
Partition type: 0x55 (Invalid)
Starting Sector (LBA): 0x552a1f55 (1428823893)
Starting CHS: Cylinder: 319 Head: 85 Sector: 21
Ending CHS: Cylinder: 42 Head: 0 Sector: 63
Size in sectors: -0x3300aac1 (-855681729)

===== Partition Table #2 =====
Boot flag: 0xcc 
Partition type: 0x80 (Invalid)
Starting Sector (LBA): 0x9faaa0a0 (2678759584)
Starting CHS: Cylinder: 980 Head: 255 Sector: 31
Ending CHS: Cylinder: 676 Head: 128 Sector: 0
Size in sectors: 0x555f55aa (1432311210)

===== Partition Table #3 =====
Boot flag: 0x80 (Bootable)
Partition type: 0xa0 (Hibernation)
Starting Sector (LBA): 0xaabfaa80 (2864687744)
Starting CHS: Cylinder: 676 Head: 128 Sector: 0
Ending CHS: Cylinder: 640 Head: 160 Sector: 0
Size in sectors: -0x555f5f5c (-1432313692)

===== Partition Table #4 =====
Boot flag: 0x9f 
Partition type: 0x2a (Invalid)
Starting Sector (LBA): 0xaa7f9faa (2860490666)
Starting CHS: Cylinder: 319 Head: 127 Sector: 21
Ending CHS: Cylinder: 341 Head: 170 Sector: 63
Size in sectors: 0x7faa559f (2141869471)

***************************************************************************

***************************************************************************
Potential MBR at physical offset: 0x1c3b355c
Disk Signature: ff-f0-fb-ff
Bootcode md5: f4600970b7d56c44a062a3e16596e83a
Bootcode (FULL) md5: f4600970b7d56c44a062a3e16596e83a
Disassembly of Bootable Code:
001c3b355c: df                               DB 0xdf
001c3b355d: d4aa                             AAM 0xaa
001c3b355f: bfd455                           MOV DI, 0x55d4
001c3b3562: 9f                               LAHF
001c3b3563: d455                             AAM 0x55
001c3b3565: 9f                               LAHF
001c3b3566: d455                             AAM 0x55
001c3b3568: 9f                               LAHF
001c3b3569: aa                               STOSB
001c3b356a: 55                               PUSH BP
001c3b356b: 7f7f                             JG 0x90
001c3b356d: 55                               PUSH BP
001c3b356e: 9f                               LAHF
001c3b356f: d480                             AAM 0x80
001c3b3571: 8080559faa                       ADD BYTE [BX+SI-0x60ab], 0xaa
001c3b3576: aa                               STOSB
001c3b3577: df                               DB 0xdf
001c3b3578: d4aa                             AAM 0xaa
001c3b357a: bfd4aa                           MOV DI, 0xaad4
001c3b357d: df                               DB 0xdf
001c3b357e: ffaadfd4                         JMP FAR WORD [BP+SI-0x2b21]
001c3b3582: aa                               STOSB
001c3b3583: bfd4aa                           MOV DI, 0xaad4
001c3b3586: df                               DB 0xdf
001c3b3587: ffaadfff                         JMP FAR WORD [BP+SI-0x21]
001c3b358b: aa                               STOSB
001c3b358c: bfd4aa                           MOV DI, 0xaad4
001c3b358f: bfd4aa                           MOV DI, 0xaad4
001c3b3592: df                               DB 0xdf
001c3b3593: d4ff                             AAM 0xff
001c3b3595: df                               DB 0xdf
001c3b3596: ffaadfff                         JMP FAR WORD [BP+SI-0x21]
001c3b359a: aa                               STOSB
001c3b359b: bfd4aa                           MOV DI, 0xaad4
001c3b359e: df                               DB 0xdf
001c3b359f: ffaadfd4                         JMP FAR WORD [BP+SI-0x2b21]
001c3b35a3: aa                               STOSB
001c3b35a4: df                               DB 0xdf
001c3b35a5: d4aa                             AAM 0xaa
001c3b35a7: df                               DB 0xdf
001c3b35a8: d4aa                             AAM 0xaa
001c3b35aa: df                               DB 0xdf
001c3b35ab: d4aa                             AAM 0xaa
001c3b35ad: bfd4aa                           MOV DI, 0xaad4
001c3b35b0: df                               DB 0xdf
001c3b35b1: d4aa                             AAM 0xaa
001c3b35b3: df                               DB 0xdf
001c3b35b4: d4aa                             AAM 0xaa
001c3b35b6: bfd4aa                           MOV DI, 0xaad4
001c3b35b9: df                               DB 0xdf
001c3b35ba: ffaadfd4                         JMP FAR WORD [BP+SI-0x2b21]
001c3b35be: aa                               STOSB
001c3b35bf: df                               DB 0xdf
001c3b35c0: d4aa                             AAM 0xaa
001c3b35c2: bfd4aa                           MOV DI, 0xaad4
001c3b35c5: df                               DB 0xdf
001c3b35c6: d4aa                             AAM 0xaa
001c3b35c8: bfd4e3                           MOV DI, 0xe3d4
001c3b35cb: dfe0                             FNSTSW AX
001c3b35cd: 00aa5f2a                         ADD [BP+SI+0x2a5f], CH
001c3b35d1: f0caa6aa                         RETF 0xaaa6
001c3b35d5: 9f                               LAHF
001c3b35d6: 55                               PUSH BP
001c3b35d7: ff9f55ff                         CALL FAR WORD [BX-0xab]
001c3b35db: cc                               INT 3
001c3b35dc: cc                               INT 3
001c3b35dd: aa                               STOSB
001c3b35de: 5f                               POP DI
001c3b35df: 2aaabfaa                         SUB CH, [BP+SI-0x5541]
001c3b35e3: f0caa6aa                         RETF 0xaaa6
001c3b35e7: 5f                               POP DI
001c3b35e8: 2a553f                           SUB DL, [DI+0x3f]
001c3b35eb: 2a555f                           SUB DL, [DI+0x5f]
001c3b35ee: 55                               PUSH BP
001c3b35ef: 55                               PUSH BP
001c3b35f0: 9f                               LAHF
001c3b35f1: aa                               STOSB
001c3b35f2: 55                               PUSH BP
001c3b35f3: bfd455                           MOV DI, 0x55d4
001c3b35f6: bfd455                           MOV DI, 0x55d4
001c3b35f9: bfd455                           MOV DI, 0x55d4
001c3b35fc: 9f                               LAHF
001c3b35fd: d400                             AAM 0x0
001c3b35ff: 7faa                             JG 0x4f
001c3b3601: 55                               PUSH BP
001c3b3602: 5f                               POP DI
001c3b3603: 7ff0                             JG 0x99
001c3b3605: fb                               STI
001c3b3606: ffaadfd4                         JMP FAR WORD [BP+SI-0x2b21]
001c3b360a: 55                               PUSH BP
001c3b360b: df                               DB 0xdf
001c3b360c: d4aa                             AAM 0xaa
001c3b360e: bfd4aa                           MOV DI, 0xaad4
001c3b3611: df                               DB 0xdf
001c3b3612: ffaadfd4                         JMP FAR WORD [BP+SI-0x2b21]
001c3b3616: aa                               STOSB
001c3b3617: bfd4aa                           MOV DI, 0xaad4
001c3b361a: df                               DB 0xdf
001c3b361b: ffaadfd4                         JMP FAR WORD [BP+SI-0x2b21]
001c3b361f: aa                               STOSB
001c3b3620: bfd4aa                           MOV DI, 0xaad4
001c3b3623: df                               DB 0xdf
001c3b3624: ffaabfaa                         JMP FAR WORD [BP+SI-0x5541]
001c3b3628: 001f                             ADD [BX], BL
001c3b362a: 2a553f                           SUB DL, [DI+0x3f]
001c3b362d: 7f00                             JG 0xd3
001c3b362f: 5f                               POP DI
001c3b3630: aa                               STOSB
001c3b3631: 55                               PUSH BP
001c3b3632: 3f                               AAS
001c3b3633: 7f55                             JG 0x12e
001c3b3635: 3f                               AAS
001c3b3636: 7f00                             JG 0xdc
001c3b3638: 5f                               POP DI
001c3b3639: 7f55                             JG 0x134
001c3b363b: 3f                               AAS
001c3b363c: 7f55                             JG 0x137
001c3b363e: 5f                               POP DI
001c3b363f: 7f00                             JG 0xe5
001c3b3641: 3f                               AAS
001c3b3642: 7f55                             JG 0x13d
001c3b3644: 3f                               AAS
001c3b3645: 55                               PUSH BP
001c3b3646: 003f                             ADD [BX], BH
001c3b3648: 55                               PUSH BP
001c3b3649: 55                               PUSH BP
001c3b364a: 3f                               AAS
001c3b364b: 55                               PUSH BP
001c3b364c: 009fd4f0                         ADD [BX-0xf2c], BL
001c3b3650: fb                               STI
001c3b3651: ff00                             INC WORD [BX+SI]
001c3b3653: 7faa                             JG 0xa3
001c3b3655: 55                               PUSH BP
001c3b3656: 5f                               POP DI
001c3b3657: aa                               STOSB
001c3b3658: 55                               PUSH BP
001c3b3659: 5f                               POP DI
001c3b365a: aa                               STOSB
001c3b365b: 005faa                           ADD [BX-0x56], BL
001c3b365e: 55                               PUSH BP
001c3b365f: 3f                               AAS
001c3b3660: 55                               PUSH BP
001c3b3661: 001f                             ADD [BX], BL
001c3b3663: 2aaa5f55                         SUB CH, [BP+SI+0x555f]
001c3b3667: aa                               STOSB
001c3b3668: 3f                               AAS
001c3b3669: 55                               PUSH BP
001c3b366a: aa                               STOSB
001c3b366b: 5f                               POP DI
001c3b366c: 55                               PUSH BP
001c3b366d: aa                               STOSB
001c3b366e: 5f                               POP DI
001c3b366f: 55                               PUSH BP
001c3b3670: aa                               STOSB
001c3b3671: 7f7f                             JG 0x196
001c3b3673: aa                               STOSB
001c3b3674: 5f                               POP DI
001c3b3675: 55                               PUSH BP
001c3b3676: aa                               STOSB
001c3b3677: 5f                               POP DI
001c3b3678: 55                               PUSH BP
001c3b3679: 55                               PUSH BP
001c3b367a: 1f                               POP DS
001c3b367b: 2aaa9f7f                         SUB CH, [BP+SI+0x7f9f]
001c3b367f: ff                               DB 0xff
001c3b3680: ff                               DB 0xff
001c3b3681: fff0                             PUSH AX
001c3b3683: caa6aa                           RETF 0xaaa6
001c3b3686: 9f                               LAHF
001c3b3687: 7faa                             JG 0xd7
001c3b3689: 9f                               LAHF
001c3b368a: 7ff0                             JG 0x120
001c3b368c: caa6aa                           RETF 0xaaa6
001c3b368f: 9f                               LAHF
001c3b3690: 7faa                             JG 0xe0
001c3b3692: 7f55                             JG 0x18d
001c3b3694: a4                               MOVSB
001c3b3695: a0a0f0                           MOV AL, [0xf0a0]
001c3b3698: caa6aa                           RETF 0xaaa6
001c3b369b: 9f                               LAHF
001c3b369c: aa                               STOSB
001c3b369d: f0caa6c0                         RETF 0xc0a6
001c3b36a1: dcc0                             FADD ST0, ST0
001c3b36a3: c0dcc0                           RCR AH, 0xc0
001c3b36a6: ffcc                             DEC SP
001c3b36a8: cc                               INT 3
001c3b36a9: c0dcc0                           RCR AH, 0xc0
001c3b36ac: aa                               STOSB
001c3b36ad: 9f                               LAHF
001c3b36ae: aa                               STOSB
001c3b36af: f0caa6f0                         RETF 0xf0a6
001c3b36b3: caa680                           RETF 0x80a6
001c3b36b6: 8080001f2a                       ADD BYTE [BX+SI+0x1f00], 0x2a
001c3b36bb: ff                               DB 0xff
001c3b36bc: df                               DB 0xdf
001c3b36bd: d4aa                             AAM 0xaa
001c3b36bf: df                               DB 0xdf
001c3b36c0: ffaabfd4                         JMP FAR WORD [BP+SI-0x2b41]
001c3b36c4: 55                               PUSH BP
001c3b36c5: bfd480                           MOV DI, 0x80d4
001c3b36c8: 8080aadfff                       ADD BYTE [BX+SI-0x2056], 0xff
001c3b36cd: 55                               PUSH BP
001c3b36ce: 5f                               POP DI
001c3b36cf: 55                               PUSH BP
001c3b36d0: 55                               PUSH BP
001c3b36d1: 7faa                             JG 0x121
001c3b36d3: 55                               PUSH BP
001c3b36d4: 9f                               LAHF
001c3b36d5: d480                             AAM 0x80
001c3b36d7: 808055bfd4                       ADD BYTE [BX+SI-0x40ab], 0xd4
001c3b36dc: 55                               PUSH BP
001c3b36dd: 5f                               POP DI
001c3b36de: 55                               PUSH BP
001c3b36df: 55                               PUSH BP
001c3b36e0: 7f7f                             JG 0x205
001c3b36e2: aa                               STOSB
001c3b36e3: ff                               DB 0xff
001c3b36e4: ffaadfd4                         JMP FAR WORD [BP+SI-0x2b21]
001c3b36e8: aa                               STOSB
001c3b36e9: bfd4aa                           MOV DI, 0xaad4
001c3b36ec: df                               DB 0xdf
001c3b36ed: d4aa                             AAM 0xaa
001c3b36ef: bfd4aa                           MOV DI, 0xaad4
001c3b36f2: df                               DB 0xdf
001c3b36f3: ffaadfd4                         JMP FAR WORD [BP+SI-0x2b21]
001c3b36f7: aa                               STOSB
001c3b36f8: df                               DB 0xdf
001c3b36f9: d4aa                             AAM 0xaa
001c3b36fb: df                               DB 0xdf
001c3b36fc: ffaadfd4                         JMP FAR WORD [BP+SI-0x2b21]
001c3b3700: aa                               STOSB
001c3b3701: df                               DB 0xdf
001c3b3702: ffaadfd4                         JMP FAR WORD [BP+SI-0x2b21]
001c3b3706: aa                               STOSB
001c3b3707: bfd4aa                           MOV DI, 0xaad4
001c3b370a: df                               DB 0xdf
001c3b370b: d4aa                             AAM 0xaa
001c3b370d: df                               DB 0xdf
001c3b370e: d4aa                             AAM 0xaa
001c3b3710: bfd4aa                           MOV DI, 0xaad4
001c3b3713: df                               DB 0xdf


===== Partition Table #1 =====
Boot flag: 0xd4 
Partition type: 0xf0 (Invalid)
Starting Sector (LBA): 0xbfaad4df (3215643871)
Starting CHS: Cylinder: 980 Head: 170 Sector: 31
Ending CHS: Cylinder: 938 Head: 251 Sector: 63
Size in sectors: -0x2b20552c (-723539244)

===== Partition Table #2 =====
Boot flag: 0xaa 
Partition type: 0xdf (DG/UX virtual disk manager partition)
Starting Sector (LBA): 0xffdfaad4 (4292848340)
Starting CHS: Cylinder: 938 Head: 223 Sector: 63
Ending CHS: Cylinder: 735 Head: 212 Sector: 42
Size in sectors: 0xe0dfe3 (14737379)

===== Partition Table #3 =====
Boot flag: 0x55 
Partition type: 0x7f (Invalid)
Starting Sector (LBA): 0x559faa2a (1436527146)
Starting CHS: Cylinder: 170 Head: 95 Sector: 42
Ending CHS: Cylinder: 639 Head: 85 Sector: 42
Size in sectors: -0x7f804001 (-2139111425)

===== Partition Table #4 =====
Boot flag: 0x80 (Bootable)
Partition type: 0xa6 (OpenBSD)
Starting Sector (LBA): 0x552a7faa (1428848554)
Starting CHS: Cylinder: 970 Head: 0 Sector: 48
Ending CHS: Cylinder: 980 Head: 255 Sector: 31
Size in sectors: 0x5f552a3f (1599416895)

***************************************************************************

***************************************************************************
Potential MBR at physical offset: 0x1d0ef6cb
Disk Signature: 5f-55-55-5f
Bootcode md5: fe79c26c20da25298db1c2fe4834dca7
Bootcode (FULL) md5: fe79c26c20da25298db1c2fe4834dca7
Disassembly of Bootable Code:
001d0ef6cb: 55                               PUSH BP
001d0ef6cc: 5f                               POP DI
001d0ef6cd: aa                               STOSB
001d0ef6ce: 55                               PUSH BP
001d0ef6cf: 5f                               POP DI
001d0ef6d0: aa                               STOSB
001d0ef6d1: 55                               PUSH BP
001d0ef6d2: 5f                               POP DI
001d0ef6d3: aa                               STOSB
001d0ef6d4: 55                               PUSH BP
001d0ef6d5: 5f                               POP DI
001d0ef6d6: aa                               STOSB
001d0ef6d7: 55                               PUSH BP
001d0ef6d8: 5f                               POP DI
001d0ef6d9: aa                               STOSB
001d0ef6da: 55                               PUSH BP
001d0ef6db: 5f                               POP DI
001d0ef6dc: aa                               STOSB
001d0ef6dd: 003f                             ADD [BX], BH
001d0ef6df: 7f55                             JG 0x6b
001d0ef6e1: 5f                               POP DI
001d0ef6e2: 7f55                             JG 0x6e
001d0ef6e4: 3f                               AAS
001d0ef6e5: aa                               STOSB
001d0ef6e6: 55                               PUSH BP
001d0ef6e7: 3f                               AAS
001d0ef6e8: aa                               STOSB
001d0ef6e9: 001f                             ADD [BX], BL
001d0ef6eb: 2aaa5f55                         SUB CH, [BP+SI+0x555f]
001d0ef6ef: aa                               STOSB
001d0ef6f0: 7f55                             JG 0x7c
001d0ef6f2: 55                               PUSH BP
001d0ef6f3: 3f                               AAS
001d0ef6f4: 2aaa5f55                         SUB CH, [BP+SI+0x555f]
001d0ef6f8: 55                               PUSH BP
001d0ef6f9: 5f                               POP DI
001d0ef6fa: 2a00                             SUB AL, [BX+SI]
001d0ef6fc: 3f                               AAS
001d0ef6fd: 55                               PUSH BP
001d0ef6fe: 55                               PUSH BP
001d0ef6ff: 3f                               AAS
001d0ef700: 55                               PUSH BP
001d0ef701: 55                               PUSH BP
001d0ef702: 3f                               AAS
001d0ef703: 7f00                             JG 0x3a
001d0ef705: 3f                               AAS
001d0ef706: 55                               PUSH BP
001d0ef707: 55                               PUSH BP
001d0ef708: 3f                               AAS
001d0ef709: 55                               PUSH BP
001d0ef70a: 001f                             ADD [BX], BL
001d0ef70c: 2a808080                         SUB AL, [BX+SI-0x7f80]
001d0ef710: 808080555f                       ADD BYTE [BX+SI+0x5580], 0x5f
001d0ef715: 55                               PUSH BP
001d0ef716: 55                               PUSH BP
001d0ef717: 5f                               POP DI
001d0ef718: 55                               PUSH BP
001d0ef719: 55                               PUSH BP
001d0ef71a: 5f                               POP DI
001d0ef71b: 55                               PUSH BP
001d0ef71c: 55                               PUSH BP
001d0ef71d: 5f                               POP DI
001d0ef71e: 55                               PUSH BP
001d0ef71f: 55                               PUSH BP
001d0ef720: 5f                               POP DI
001d0ef721: 55                               PUSH BP
001d0ef722: 55                               PUSH BP
001d0ef723: 5f                               POP DI
001d0ef724: 55                               PUSH BP
001d0ef725: 55                               PUSH BP
001d0ef726: 5f                               POP DI
001d0ef727: 55                               PUSH BP
001d0ef728: 55                               PUSH BP
001d0ef729: 3f                               AAS
001d0ef72a: 2a00                             SUB AL, [BX+SI]
001d0ef72c: 3f                               AAS
001d0ef72d: 55                               PUSH BP
001d0ef72e: 55                               PUSH BP
001d0ef72f: 3f                               AAS
001d0ef730: 2a551f                           SUB DL, [DI+0x1f]
001d0ef733: 2a808080                         SUB AL, [BX+SI-0x7f80]
001d0ef737: ff                               DB 0xff
001d0ef738: ffd4                             CALL SP
001d0ef73a: a4                               MOVSB
001d0ef73b: a0a055                           MOV AL, [0x55a0]
001d0ef73e: 3f                               AAS
001d0ef73f: 2aaabfd4                         SUB CH, [BP+SI-0x2b41]
001d0ef743: 55                               PUSH BP
001d0ef744: 5f                               POP DI
001d0ef745: 55                               PUSH BP
001d0ef746: 808080a4a0                       ADD BYTE [BX+SI-0x5b80], 0xa0
001d0ef74b: a0555f                           MOV AL, [0x5f55]
001d0ef74e: 55                               PUSH BP
001d0ef74f: a4                               MOVSB
001d0ef750: a0a0a4                           MOV AL, [0xa4a0]
001d0ef753: a0a0aa                           MOV AL, [0xaaa0]
001d0ef756: 7f7f                             JG 0x10c
001d0ef758: 55                               PUSH BP
001d0ef759: 5f                               POP DI
001d0ef75a: 55                               PUSH BP
001d0ef75b: 55                               PUSH BP
001d0ef75c: 5f                               POP DI
001d0ef75d: 55                               PUSH BP
001d0ef75e: aa                               STOSB
001d0ef75f: 9f                               LAHF
001d0ef760: 7faa                             JG 0x41
001d0ef762: 9f                               LAHF
001d0ef763: 55                               PUSH BP
001d0ef764: aa                               STOSB
001d0ef765: 9f                               LAHF
001d0ef766: 7fff                             JG 0x9c
001d0ef768: 9f                               LAHF
001d0ef769: 7faa                             JG 0x4a
001d0ef76b: 9f                               LAHF
001d0ef76c: 7faa                             JG 0x4d
001d0ef76e: 9f                               LAHF
001d0ef76f: 55                               PUSH BP
001d0ef770: aa                               STOSB
001d0ef771: 9f                               LAHF
001d0ef772: 7faa                             JG 0x53
001d0ef774: 9f                               LAHF
001d0ef775: 7faa                             JG 0x56
001d0ef777: 9f                               LAHF
001d0ef778: 7faa                             JG 0x59
001d0ef77a: 9f                               LAHF
001d0ef77b: 7faa                             JG 0x5c
001d0ef77d: 7f55                             JG 0x109
001d0ef77f: 55                               PUSH BP
001d0ef780: 5f                               POP DI
001d0ef781: 2aaa7f55                         SUB CH, [BP+SI+0x557f]
001d0ef785: aa                               STOSB
001d0ef786: 7f55                             JG 0x112
001d0ef788: 55                               PUSH BP
001d0ef789: 5f                               POP DI
001d0ef78a: 2a553f                           SUB DL, [DI+0x3f]
001d0ef78d: 2a00                             SUB AL, [BX+SI]
001d0ef78f: 5f                               POP DI
001d0ef790: 7f55                             JG 0x11c
001d0ef792: 7fd4                             JG 0x9d
001d0ef794: 007faa                           ADD [BX-0x56], BH
001d0ef797: 55                               PUSH BP
001d0ef798: 7faa                             JG 0x79
001d0ef79a: 55                               PUSH BP
001d0ef79b: 7faa                             JG 0x7c
001d0ef79d: 55                               PUSH BP
001d0ef79e: 9f                               LAHF
001d0ef79f: aa                               STOSB
001d0ef7a0: 55                               PUSH BP
001d0ef7a1: 5f                               POP DI
001d0ef7a2: aa                               STOSB
001d0ef7a3: 55                               PUSH BP
001d0ef7a4: 9f                               LAHF
001d0ef7a5: aa                               STOSB
001d0ef7a6: 007faa                           ADD [BX-0x56], BH
001d0ef7a9: 55                               PUSH BP
001d0ef7aa: 7faa                             JG 0x8b
001d0ef7ac: 005faa                           ADD [BX-0x56], BL
001d0ef7af: 55                               PUSH BP
001d0ef7b0: 5f                               POP DI
001d0ef7b1: 55                               PUSH BP
001d0ef7b2: 001f                             ADD [BX], BL
001d0ef7b4: 2aaa5f2a                         SUB CH, [BP+SI+0x2a5f]
001d0ef7b8: 55                               PUSH BP
001d0ef7b9: 5f                               POP DI
001d0ef7ba: 55                               PUSH BP
001d0ef7bb: 55                               PUSH BP
001d0ef7bc: 5f                               POP DI
001d0ef7bd: 2a553f                           SUB DL, [DI+0x3f]
001d0ef7c0: 55                               PUSH BP
001d0ef7c1: 55                               PUSH BP
001d0ef7c2: 3f                               AAS
001d0ef7c3: 2a553f                           SUB DL, [DI+0x3f]
001d0ef7c6: 2aaa5f55                         SUB CH, [BP+SI+0x555f]
001d0ef7ca: aa                               STOSB
001d0ef7cb: 5f                               POP DI
001d0ef7cc: 55                               PUSH BP
001d0ef7cd: 55                               PUSH BP
001d0ef7ce: 3f                               AAS
001d0ef7cf: 55                               PUSH BP
001d0ef7d0: 55                               PUSH BP
001d0ef7d1: 3f                               AAS
001d0ef7d2: 2aaa7f55                         SUB CH, [BP+SI+0x557f]
001d0ef7d6: aa                               STOSB
001d0ef7d7: 9f                               LAHF
001d0ef7d8: 7faa                             JG 0xb9
001d0ef7da: 5f                               POP DI
001d0ef7db: 2a555f                           SUB DL, [DI+0x5f]
001d0ef7de: 55                               PUSH BP
001d0ef7df: 003f                             ADD [BX], BH
001d0ef7e1: 2a555f                           SUB DL, [DI+0x5f]
001d0ef7e4: aa                               STOSB
001d0ef7e5: 005faa                           ADD [BX-0x56], BL
001d0ef7e8: 55                               PUSH BP
001d0ef7e9: 5f                               POP DI
001d0ef7ea: d400                             AAM 0x0
001d0ef7ec: 5f                               POP DI
001d0ef7ed: aa                               STOSB
001d0ef7ee: 005fd4                           ADD [BX-0x2c], BL
001d0ef7f1: 005faa                           ADD [BX-0x56], BL
001d0ef7f4: 005faa                           ADD [BX-0x56], BL
001d0ef7f7: 005faa                           ADD [BX-0x56], BL
001d0ef7fa: 55                               PUSH BP
001d0ef7fb: 5f                               POP DI
001d0ef7fc: aa                               STOSB
001d0ef7fd: 005f7f                           ADD [BX+0x7f], BL
001d0ef800: 55                               PUSH BP
001d0ef801: 5f                               POP DI
001d0ef802: 7f00                             JG 0x139
001d0ef804: 5f                               POP DI
001d0ef805: 7f55                             JG 0x191
001d0ef807: 3f                               AAS
001d0ef808: 7f55                             JG 0x194
001d0ef80a: 3f                               AAS
001d0ef80b: 55                               PUSH BP
001d0ef80c: 55                               PUSH BP
001d0ef80d: 3f                               AAS
001d0ef80e: 55                               PUSH BP
001d0ef80f: 55                               PUSH BP
001d0ef810: 3f                               AAS
001d0ef811: 55                               PUSH BP
001d0ef812: e3df                             JCXZ 0x128
001d0ef814: e000                             LOOPNZ 0x14b
001d0ef816: 55                               PUSH BP
001d0ef817: 3f                               AAS
001d0ef818: 55                               PUSH BP
001d0ef819: 55                               PUSH BP
001d0ef81a: 3f                               AAS
001d0ef81b: 55                               PUSH BP
001d0ef81c: 003f                             ADD [BX], BH
001d0ef81e: 55                               PUSH BP
001d0ef81f: 55                               PUSH BP
001d0ef820: 3f                               AAS
001d0ef821: 55                               PUSH BP
001d0ef822: 003f                             ADD [BX], BH
001d0ef824: 55                               PUSH BP
001d0ef825: 55                               PUSH BP
001d0ef826: 3f                               AAS
001d0ef827: 55                               PUSH BP
001d0ef828: 55                               PUSH BP
001d0ef829: 3f                               AAS
001d0ef82a: 7f00                             JG 0x161
001d0ef82c: 3f                               AAS
001d0ef82d: 55                               PUSH BP
001d0ef82e: 55                               PUSH BP
001d0ef82f: 5f                               POP DI
001d0ef830: 7f55                             JG 0x1bc
001d0ef832: 7fd4                             JG 0x13d
001d0ef834: 55                               PUSH BP
001d0ef835: 5f                               POP DI
001d0ef836: aa                               STOSB
001d0ef837: 55                               PUSH BP
001d0ef838: 5f                               POP DI
001d0ef839: aa                               STOSB
001d0ef83a: 55                               PUSH BP
001d0ef83b: 5f                               POP DI
001d0ef83c: aa                               STOSB
001d0ef83d: 55                               PUSH BP
001d0ef83e: 5f                               POP DI
001d0ef83f: aa                               STOSB
001d0ef840: 55                               PUSH BP
001d0ef841: 7faa                             JG 0x122
001d0ef843: 55                               PUSH BP
001d0ef844: 5f                               POP DI
001d0ef845: aa                               STOSB
001d0ef846: 55                               PUSH BP
001d0ef847: 5f                               POP DI
001d0ef848: aa                               STOSB
001d0ef849: 55                               PUSH BP
001d0ef84a: 5f                               POP DI
001d0ef84b: aa                               STOSB
001d0ef84c: 55                               PUSH BP
001d0ef84d: 3f                               AAS
001d0ef84e: 7f00                             JG 0x185
001d0ef850: 3f                               AAS
001d0ef851: d455                             AAM 0x55
001d0ef853: 5f                               POP DI
001d0ef854: 7f00                             JG 0x18b
001d0ef856: 3f                               AAS
001d0ef857: 2a555f                           SUB DL, [DI+0x5f]
001d0ef85a: 55                               PUSH BP
001d0ef85b: aa                               STOSB
001d0ef85c: 7f55                             JG 0x1e8
001d0ef85e: 55                               PUSH BP
001d0ef85f: 3f                               AAS
001d0ef860: 2aaa5f55                         SUB CH, [BP+SI+0x555f]
001d0ef864: aa                               STOSB
001d0ef865: 5f                               POP DI
001d0ef866: 55                               PUSH BP
001d0ef867: 55                               PUSH BP
001d0ef868: 1f                               POP DS
001d0ef869: 2a00                             SUB AL, [BX+SI]
001d0ef86b: 3f                               AAS
001d0ef86c: 55                               PUSH BP
001d0ef86d: 55                               PUSH BP
001d0ef86e: 3f                               AAS
001d0ef86f: 55                               PUSH BP
001d0ef870: 55                               PUSH BP
001d0ef871: 3f                               AAS
001d0ef872: 55                               PUSH BP
001d0ef873: 55                               PUSH BP
001d0ef874: 3f                               AAS
001d0ef875: 55                               PUSH BP
001d0ef876: 001f                             ADD [BX], BL
001d0ef878: 2a808080                         SUB AL, [BX+SI-0x7f80]
001d0ef87c: 808080555f                       ADD BYTE [BX+SI+0x5580], 0x5f
001d0ef881: 55                               PUSH BP
001d0ef882: 55                               PUSH BP


===== Partition Table #1 =====
Boot flag: 0x5f 
Partition type: 0x55 (Invalid)
Starting Sector (LBA): 0x55553f55 (1431650133)
Starting CHS: Cylinder: 351 Head: 85 Sector: 21
Ending CHS: Cylinder: 85 Head: 85 Sector: 63
Size in sectors: 0x3f55553f (1062556991)

===== Partition Table #2 =====
Boot flag: 0x2a 
Partition type: 0x55 (Invalid)
Starting Sector (LBA): 0xffff555f (4294923615)
Starting CHS: Cylinder: 42 Head: 0 Sector: 63
Ending CHS: Cylinder: 85 Head: 31 Sector: 42
Size in sectors: -0x55605501 (-1432376577)

===== Partition Table #3 =====
Boot flag: 0x55 
Partition type: 0xdc (Invalid)
Starting Sector (LBA): 0x808080a0 (2155905184)
Starting CHS: Cylinder: 448 Head: 95 Sector: 21
Ending CHS: Cylinder: 672 Head: 192 Sector: 36
Size in sectors: -0x7f5f5f5c (-2136956764)

===== Partition Table #4 =====
Boot flag: 0x80 (Bootable)
Partition type: 0xa0 (Hibernation)
Starting Sector (LBA): 0x55808080 (1434484864)
Starting CHS: Cylinder: 672 Head: 128 Sector: 36
Ending CHS: Cylinder: 640 Head: 128 Sector: 0
Size in sectors: 0x5f55555f (1599427935)

***************************************************************************

***************************************************************************
Potential MBR at physical offset: 0x1d0ef9a9
Disk Signature: 5f-55-55-3f
Bootcode md5: 2cd883e017ed9deb20ad2c52fcb3b9f2
Bootcode (FULL) md5: 2cd883e017ed9deb20ad2c52fcb3b9f2
Disassembly of Bootable Code:
001d0ef9a9: 55                               PUSH BP
001d0ef9aa: 5f                               POP DI
001d0ef9ab: aa                               STOSB
001d0ef9ac: 55                               PUSH BP
001d0ef9ad: 7faa                             JG 0xffb0
001d0ef9af: 55                               PUSH BP
001d0ef9b0: 5f                               POP DI
001d0ef9b1: aa                               STOSB
001d0ef9b2: 55                               PUSH BP
001d0ef9b3: 5f                               POP DI
001d0ef9b4: 7f55                             JG 0x62
001d0ef9b6: 5f                               POP DI
001d0ef9b7: aa                               STOSB
001d0ef9b8: 55                               PUSH BP
001d0ef9b9: 3f                               AAS
001d0ef9ba: aa                               STOSB
001d0ef9bb: 003f                             ADD [BX], BH
001d0ef9bd: aa                               STOSB
001d0ef9be: 55                               PUSH BP
001d0ef9bf: 3f                               AAS
001d0ef9c0: 7f55                             JG 0x6e
001d0ef9c2: 1f                               POP DS
001d0ef9c3: 2a808080                         SUB AL, [BX+SI-0x7f80]
001d0ef9c7: aa                               STOSB
001d0ef9c8: 9f                               LAHF
001d0ef9c9: 55                               PUSH BP
001d0ef9ca: aa                               STOSB
001d0ef9cb: 5f                               POP DI
001d0ef9cc: 2aaa5f55                         SUB CH, [BP+SI+0x555f]
001d0ef9d0: 55                               PUSH BP
001d0ef9d1: 5f                               POP DI
001d0ef9d2: 55                               PUSH BP
001d0ef9d3: 003f                             ADD [BX], BH
001d0ef9d5: 2a553f                           SUB DL, [DI+0x3f]
001d0ef9d8: 7f00                             JG 0x31
001d0ef9da: 3f                               AAS
001d0ef9db: 55                               PUSH BP
001d0ef9dc: 55                               PUSH BP
001d0ef9dd: 3f                               AAS
001d0ef9de: 55                               PUSH BP
001d0ef9df: 003f                             ADD [BX], BH
001d0ef9e1: 55                               PUSH BP
001d0ef9e2: 55                               PUSH BP
001d0ef9e3: 3f                               AAS
001d0ef9e4: 2a808080                         SUB AL, [BX+SI-0x7f80]
001d0ef9e8: 808080555f                       ADD BYTE [BX+SI+0x5580], 0x5f
001d0ef9ed: 7f55                             JG 0x9b
001d0ef9ef: 5f                               POP DI
001d0ef9f0: 55                               PUSH BP
001d0ef9f1: 55                               PUSH BP
001d0ef9f2: 5f                               POP DI
001d0ef9f3: 55                               PUSH BP
001d0ef9f4: 55                               PUSH BP
001d0ef9f5: 5f                               POP DI
001d0ef9f6: 7f55                             JG 0xa4
001d0ef9f8: 5f                               POP DI
001d0ef9f9: 55                               PUSH BP
001d0ef9fa: 55                               PUSH BP
001d0ef9fb: 3f                               AAS
001d0ef9fc: 55                               PUSH BP
001d0ef9fd: 55                               PUSH BP
001d0ef9fe: 3f                               AAS
001d0ef9ff: 2a00                             SUB AL, [BX+SI]
001d0efa01: 3f                               AAS
001d0efa02: 55                               PUSH BP
001d0efa03: 55                               PUSH BP
001d0efa04: 3f                               AAS
001d0efa05: 55                               PUSH BP
001d0efa06: 55                               PUSH BP
001d0efa07: 3f                               AAS
001d0efa08: 2a00                             SUB AL, [BX+SI]
001d0efa0a: 1f                               POP DS
001d0efa0b: 2a555f                           SUB DL, [DI+0x5f]
001d0efa0e: 55                               PUSH BP
001d0efa0f: ff                               DB 0xff
001d0efa10: df                               DB 0xdf
001d0efa11: ffaabfaa                         JMP FAR WORD [BP+SI-0x5541]
001d0efa15: a4                               MOVSB
001d0efa16: a0a0aa                           MOV AL, [0xaaa0]
001d0efa19: 9f                               LAHF
001d0efa1a: aa                               STOSB
001d0efa1b: aa                               STOSB
001d0efa1c: bfaaa4                           MOV DI, 0xa4aa
001d0efa1f: a0a080                           MOV AL, [0x80a0]
001d0efa22: 8080a4a0a0                       ADD BYTE [BX+SI-0x5f5c], 0xa0
001d0efa27: 55                               PUSH BP
001d0efa28: 7f7f                             JG 0x100
001d0efa2a: aa                               STOSB
001d0efa2b: 9f                               LAHF
001d0efa2c: 7f55                             JG 0xda
001d0efa2e: 5f                               POP DI
001d0efa2f: 55                               PUSH BP
001d0efa30: 808080553f                       ADD BYTE [BX+SI+0x5580], 0x3f
001d0efa35: 55                               PUSH BP
001d0efa36: aa                               STOSB
001d0efa37: 9f                               LAHF
001d0efa38: 7faa                             JG 0x3b
001d0efa3a: 7f55                             JG 0xe8
001d0efa3c: aa                               STOSB
001d0efa3d: 7f55                             JG 0xeb
001d0efa3f: aa                               STOSB
001d0efa40: 9f                               LAHF
001d0efa41: 7faa                             JG 0x44
001d0efa43: 7f55                             JG 0xf1
001d0efa45: aa                               STOSB
001d0efa46: 5f                               POP DI
001d0efa47: 2aaa7f55                         SUB CH, [BP+SI+0x557f]
001d0efa4b: aa                               STOSB
001d0efa4c: 7f55                             JG 0xfa
001d0efa4e: aa                               STOSB
001d0efa4f: 7f55                             JG 0xfd
001d0efa51: aa                               STOSB
001d0efa52: 9f                               LAHF
001d0efa53: 55                               PUSH BP
001d0efa54: 55                               PUSH BP
001d0efa55: 5f                               POP DI
001d0efa56: 2aaa7f55                         SUB CH, [BP+SI+0x557f]
001d0efa5a: aa                               STOSB
001d0efa5b: 7f55                             JG 0x109
001d0efa5d: aa                               STOSB
001d0efa5e: 7f55                             JG 0x10c
001d0efa60: aa                               STOSB
001d0efa61: 7f2a                             JG 0xe4
001d0efa63: 001f                             ADD [BX], BL
001d0efa65: 2a557f                           SUB DL, [DI+0x7f]
001d0efa68: 7f00                             JG 0xc1
001d0efa6a: 7faa                             JG 0x6d
001d0efa6c: 55                               PUSH BP
001d0efa6d: 7faa                             JG 0x70
001d0efa6f: 55                               PUSH BP
001d0efa70: 7faa                             JG 0x73
001d0efa72: 55                               PUSH BP
001d0efa73: 9f                               LAHF
001d0efa74: aa                               STOSB
001d0efa75: 55                               PUSH BP
001d0efa76: 5f                               POP DI
001d0efa77: 7f55                             JG 0x125
001d0efa79: 7faa                             JG 0x7c
001d0efa7b: 55                               PUSH BP
001d0efa7c: 5f                               POP DI
001d0efa7d: 55                               PUSH BP
001d0efa7e: 007faa                           ADD [BX-0x56], BH
001d0efa81: 55                               PUSH BP
001d0efa82: 5f                               POP DI
001d0efa83: 7f00                             JG 0xdc
001d0efa85: 7faa                             JG 0x88
001d0efa87: 55                               PUSH BP
001d0efa88: 5f                               POP DI
001d0efa89: 7f00                             JG 0xe2
001d0efa8b: 1f                               POP DS
001d0efa8c: 2a553f                           SUB DL, [DI+0x3f]
001d0efa8f: 2aaa5f2a                         SUB CH, [BP+SI+0x2a5f]
001d0efa93: aa                               STOSB
001d0efa94: 5f                               POP DI
001d0efa95: 55                               PUSH BP
001d0efa96: aa                               STOSB
001d0efa97: 5f                               POP DI
001d0efa98: 2a555f                           SUB DL, [DI+0x5f]
001d0efa9b: 2aaa5f55                         SUB CH, [BP+SI+0x555f]
001d0efa9f: 55                               PUSH BP
001d0efaa0: 3f                               AAS
001d0efaa1: 2aaa5f55                         SUB CH, [BP+SI+0x555f]
001d0efaa5: aa                               STOSB
001d0efaa6: 3f                               AAS
001d0efaa7: 55                               PUSH BP
001d0efaa8: 55                               PUSH BP
001d0efaa9: 5f                               POP DI
001d0efaaa: 2aaa5f2a                         SUB CH, [BP+SI+0x2a5f]
001d0efaae: 55                               PUSH BP
001d0efaaf: 5f                               POP DI
001d0efab0: 55                               PUSH BP
001d0efab1: aa                               STOSB
001d0efab2: 5f                               POP DI
001d0efab3: 2aaa5f55                         SUB CH, [BP+SI+0x555f]
001d0efab7: 003f                             ADD [BX], BH
001d0efab9: 2a551f                           SUB DL, [DI+0x1f]
001d0efabc: 7f00                             JG 0x115
001d0efabe: 5f                               POP DI
001d0efabf: d455                             AAM 0x55
001d0efac1: 3f                               AAS
001d0efac2: 7f55                             JG 0x170
001d0efac4: 3f                               AAS
001d0efac5: 55                               PUSH BP
001d0efac6: 001f                             ADD [BX], BL
001d0efac8: 55                               PUSH BP
001d0efac9: 55                               PUSH BP
001d0efaca: 3f                               AAS
001d0efacb: 2a553f                           SUB DL, [DI+0x3f]
001d0eface: 55                               PUSH BP
001d0efacf: 003f                             ADD [BX], BH
001d0efad1: 7f55                             JG 0x17f
001d0efad3: 3f                               AAS
001d0efad4: 7f55                             JG 0x182
001d0efad6: 5f                               POP DI
001d0efad7: 7f00                             JG 0x130
001d0efad9: 5f                               POP DI
001d0efada: aa                               STOSB
001d0efadb: 55                               PUSH BP
001d0efadc: 5f                               POP DI
001d0efadd: aa                               STOSB
001d0efade: 55                               PUSH BP
001d0efadf: 5f                               POP DI
001d0efae0: aa                               STOSB
001d0efae1: 55                               PUSH BP
001d0efae2: 5f                               POP DI
001d0efae3: aa                               STOSB
001d0efae4: 55                               PUSH BP
001d0efae5: 7fd4                             JG 0x112
001d0efae7: 007fd4                           ADD [BX-0x2c], BH
001d0efaea: e3df                             JCXZ 0x122
001d0efaec: e000                             LOOPNZ 0x145
001d0efaee: 55                               PUSH BP
001d0efaef: 3f                               AAS
001d0efaf0: 7f00                             JG 0x149
001d0efaf2: 3f                               AAS
001d0efaf3: 7f55                             JG 0x1a1
001d0efaf5: 3f                               AAS
001d0efaf6: 7f00                             JG 0x14f
001d0efaf8: 1f                               POP DS
001d0efaf9: 55                               PUSH BP
001d0efafa: 55                               PUSH BP
001d0efafb: 3f                               AAS
001d0efafc: 55                               PUSH BP
001d0efafd: 55                               PUSH BP
001d0efafe: 3f                               AAS
001d0efaff: 7f55                             JG 0x1ad
001d0efb01: 3f                               AAS
001d0efb02: 7f00                             JG 0x15b
001d0efb04: 1f                               POP DS
001d0efb05: 55                               PUSH BP
001d0efb06: 55                               PUSH BP
001d0efb07: 7faa                             JG 0x10a
001d0efb09: 55                               PUSH BP
001d0efb0a: 9f                               LAHF
001d0efb0b: d455                             AAM 0x55
001d0efb0d: 5f                               POP DI
001d0efb0e: aa                               STOSB
001d0efb0f: 55                               PUSH BP
001d0efb10: 3f                               AAS
001d0efb11: aa                               STOSB
001d0efb12: 005f7f                           ADD [BX+0x7f], BL
001d0efb15: 55                               PUSH BP
001d0efb16: 5f                               POP DI
001d0efb17: aa                               STOSB
001d0efb18: 55                               PUSH BP
001d0efb19: 5f                               POP DI
001d0efb1a: 7f55                             JG 0x1c8
001d0efb1c: 5f                               POP DI
001d0efb1d: 7f00                             JG 0x176
001d0efb1f: 3f                               AAS
001d0efb20: aa                               STOSB
001d0efb21: 55                               PUSH BP
001d0efb22: 5f                               POP DI
001d0efb23: 7f55                             JG 0x1d1
001d0efb25: 5f                               POP DI
001d0efb26: 7f55                             JG 0x1d4
001d0efb28: 3f                               AAS
001d0efb29: aa                               STOSB
001d0efb2a: 001f                             ADD [BX], BL
001d0efb2c: 7f00                             JG 0x185
001d0efb2e: 1f                               POP DS
001d0efb2f: 2a808080                         SUB AL, [BX+SI-0x7f80]
001d0efb33: aa                               STOSB
001d0efb34: 9f                               LAHF
001d0efb35: 55                               PUSH BP
001d0efb36: aa                               STOSB
001d0efb37: 5f                               POP DI
001d0efb38: 55                               PUSH BP
001d0efb39: 55                               PUSH BP
001d0efb3a: 5f                               POP DI
001d0efb3b: 55                               PUSH BP
001d0efb3c: aa                               STOSB
001d0efb3d: 5f                               POP DI
001d0efb3e: 2a551f                           SUB DL, [DI+0x1f]
001d0efb41: 2a00                             SUB AL, [BX+SI]
001d0efb43: 3f                               AAS
001d0efb44: 55                               PUSH BP
001d0efb45: 55                               PUSH BP
001d0efb46: 3f                               AAS
001d0efb47: 55                               PUSH BP
001d0efb48: 003f                             ADD [BX], BH
001d0efb4a: 55                               PUSH BP
001d0efb4b: 55                               PUSH BP
001d0efb4c: 3f                               AAS
001d0efb4d: 55                               PUSH BP
001d0efb4e: 001f                             ADD [BX], BL
001d0efb50: 2aaa7f7f                         SUB CH, [BP+SI+0x7f7f]
001d0efb54: 55                               PUSH BP
001d0efb55: 5f                               POP DI
001d0efb56: 55                               PUSH BP
001d0efb57: 55                               PUSH BP
001d0efb58: 5f                               POP DI
001d0efb59: 55                               PUSH BP
001d0efb5a: 55                               PUSH BP
001d0efb5b: 5f                               POP DI
001d0efb5c: 55                               PUSH BP
001d0efb5d: 55                               PUSH BP
001d0efb5e: 3f                               AAS
001d0efb5f: 55                               PUSH BP
001d0efb60: 55                               PUSH BP


===== Partition Table #1 =====
Boot flag: 0x5f 
Partition type: 0x55 (Invalid)
Starting Sector (LBA): 0x552a3f55 (1428832085)
Starting CHS: Cylinder: 351 Head: 85 Sector: 21
Ending CHS: Cylinder: 85 Head: 85 Sector: 63
Size in sectors: 0x1f55553f (525686079)

===== Partition Table #2 =====
Boot flag: 0x2a 
Partition type: 0xff (Invalid)
Starting Sector (LBA): 0x5f55aabf (1599449791)
Starting CHS: Cylinder: 640 Head: 128 Sector: 0
Ending CHS: Cylinder: 938 Head: 223 Sector: 20
Size in sectors: -0x5f5f5bab (-1600084907)

===== Partition Table #3 =====
Boot flag: 0xaa 
Partition type: 0x7f (Invalid)
Starting Sector (LBA): 0x808080aa (2155905194)
Starting CHS: Cylinder: 682 Head: 191 Sector: 42
Ending CHS: Cylinder: 703 Head: 127 Sector: 42
Size in sectors: -0x7faaa0ab (-2141888683)

===== Partition Table #4 =====
Boot flag: 0x80 (Bootable)
Partition type: 0xa0 (Hibernation)
Starting Sector (LBA): 0xaa2a3f55 (2854895445)
Starting CHS: Cylinder: 672 Head: 128 Sector: 36
Ending CHS: Cylinder: 640 Head: 128 Sector: 0
Size in sectors: 0x7faa7f9f (2141880223)

***************************************************************************

***************************************************************************
Potential MBR at physical offset: 0x1d0ef9b8
Disk Signature: 3f-2a-55-3f
Bootcode md5: 5b37e6a1bbbcd518861a8a05f2d7f229
Bootcode (FULL) md5: 5b37e6a1bbbcd518861a8a05f2d7f229
Disassembly of Bootable Code:
001d0ef9b8: 55                               PUSH BP
001d0ef9b9: 3f                               AAS
001d0ef9ba: aa                               STOSB
001d0ef9bb: 003f                             ADD [BX], BH
001d0ef9bd: aa                               STOSB
001d0ef9be: 55                               PUSH BP
001d0ef9bf: 3f                               AAS
001d0ef9c0: 7f55                             JG 0x5f
001d0ef9c2: 1f                               POP DS
001d0ef9c3: 2a808080                         SUB AL, [BX+SI-0x7f80]
001d0ef9c7: aa                               STOSB
001d0ef9c8: 9f                               LAHF
001d0ef9c9: 55                               PUSH BP
001d0ef9ca: aa                               STOSB
001d0ef9cb: 5f                               POP DI
001d0ef9cc: 2aaa5f55                         SUB CH, [BP+SI+0x555f]
001d0ef9d0: 55                               PUSH BP
001d0ef9d1: 5f                               POP DI
001d0ef9d2: 55                               PUSH BP
001d0ef9d3: 003f                             ADD [BX], BH
001d0ef9d5: 2a553f                           SUB DL, [DI+0x3f]
001d0ef9d8: 7f00                             JG 0x22
001d0ef9da: 3f                               AAS
001d0ef9db: 55                               PUSH BP
001d0ef9dc: 55                               PUSH BP
001d0ef9dd: 3f                               AAS
001d0ef9de: 55                               PUSH BP
001d0ef9df: 003f                             ADD [BX], BH
001d0ef9e1: 55                               PUSH BP
001d0ef9e2: 55                               PUSH BP
001d0ef9e3: 3f                               AAS
001d0ef9e4: 2a808080                         SUB AL, [BX+SI-0x7f80]
001d0ef9e8: 808080555f                       ADD BYTE [BX+SI+0x5580], 0x5f
001d0ef9ed: 7f55                             JG 0x8c
001d0ef9ef: 5f                               POP DI
001d0ef9f0: 55                               PUSH BP
001d0ef9f1: 55                               PUSH BP
001d0ef9f2: 5f                               POP DI
001d0ef9f3: 55                               PUSH BP
001d0ef9f4: 55                               PUSH BP
001d0ef9f5: 5f                               POP DI
001d0ef9f6: 7f55                             JG 0x95
001d0ef9f8: 5f                               POP DI
001d0ef9f9: 55                               PUSH BP
001d0ef9fa: 55                               PUSH BP
001d0ef9fb: 3f                               AAS
001d0ef9fc: 55                               PUSH BP
001d0ef9fd: 55                               PUSH BP
001d0ef9fe: 3f                               AAS
001d0ef9ff: 2a00                             SUB AL, [BX+SI]
001d0efa01: 3f                               AAS
001d0efa02: 55                               PUSH BP
001d0efa03: 55                               PUSH BP
001d0efa04: 3f                               AAS
001d0efa05: 55                               PUSH BP
001d0efa06: 55                               PUSH BP
001d0efa07: 3f                               AAS
001d0efa08: 2a00                             SUB AL, [BX+SI]
001d0efa0a: 1f                               POP DS
001d0efa0b: 2a555f                           SUB DL, [DI+0x5f]
001d0efa0e: 55                               PUSH BP
001d0efa0f: ff                               DB 0xff
001d0efa10: df                               DB 0xdf
001d0efa11: ffaabfaa                         JMP FAR WORD [BP+SI-0x5541]
001d0efa15: a4                               MOVSB
001d0efa16: a0a0aa                           MOV AL, [0xaaa0]
001d0efa19: 9f                               LAHF
001d0efa1a: aa                               STOSB
001d0efa1b: aa                               STOSB
001d0efa1c: bfaaa4                           MOV DI, 0xa4aa
001d0efa1f: a0a080                           MOV AL, [0x80a0]
001d0efa22: 8080a4a0a0                       ADD BYTE [BX+SI-0x5f5c], 0xa0
001d0efa27: 55                               PUSH BP
001d0efa28: 7f7f                             JG 0xf1
001d0efa2a: aa                               STOSB
001d0efa2b: 9f                               LAHF
001d0efa2c: 7f55                             JG 0xcb
001d0efa2e: 5f                               POP DI
001d0efa2f: 55                               PUSH BP
001d0efa30: 808080553f                       ADD BYTE [BX+SI+0x5580], 0x3f
001d0efa35: 55                               PUSH BP
001d0efa36: aa                               STOSB
001d0efa37: 9f                               LAHF
001d0efa38: 7faa                             JG 0x2c
001d0efa3a: 7f55                             JG 0xd9
001d0efa3c: aa                               STOSB
001d0efa3d: 7f55                             JG 0xdc
001d0efa3f: aa                               STOSB
001d0efa40: 9f                               LAHF
001d0efa41: 7faa                             JG 0x35
001d0efa43: 7f55                             JG 0xe2
001d0efa45: aa                               STOSB
001d0efa46: 5f                               POP DI
001d0efa47: 2aaa7f55                         SUB CH, [BP+SI+0x557f]
001d0efa4b: aa                               STOSB
001d0efa4c: 7f55                             JG 0xeb
001d0efa4e: aa                               STOSB
001d0efa4f: 7f55                             JG 0xee
001d0efa51: aa                               STOSB
001d0efa52: 9f                               LAHF
001d0efa53: 55                               PUSH BP
001d0efa54: 55                               PUSH BP
001d0efa55: 5f                               POP DI
001d0efa56: 2aaa7f55                         SUB CH, [BP+SI+0x557f]
001d0efa5a: aa                               STOSB
001d0efa5b: 7f55                             JG 0xfa
001d0efa5d: aa                               STOSB
001d0efa5e: 7f55                             JG 0xfd
001d0efa60: aa                               STOSB
001d0efa61: 7f2a                             JG 0xd5
001d0efa63: 001f                             ADD [BX], BL
001d0efa65: 2a557f                           SUB DL, [DI+0x7f]
001d0efa68: 7f00                             JG 0xb2
001d0efa6a: 7faa                             JG 0x5e
001d0efa6c: 55                               PUSH BP
001d0efa6d: 7faa                             JG 0x61
001d0efa6f: 55                               PUSH BP
001d0efa70: 7faa                             JG 0x64
001d0efa72: 55                               PUSH BP
001d0efa73: 9f                               LAHF
001d0efa74: aa                               STOSB
001d0efa75: 55                               PUSH BP
001d0efa76: 5f                               POP DI
001d0efa77: 7f55                             JG 0x116
001d0efa79: 7faa                             JG 0x6d
001d0efa7b: 55                               PUSH BP
001d0efa7c: 5f                               POP DI
001d0efa7d: 55                               PUSH BP
001d0efa7e: 007faa                           ADD [BX-0x56], BH
001d0efa81: 55                               PUSH BP
001d0efa82: 5f                               POP DI
001d0efa83: 7f00                             JG 0xcd
001d0efa85: 7faa                             JG 0x79
001d0efa87: 55                               PUSH BP
001d0efa88: 5f                               POP DI
001d0efa89: 7f00                             JG 0xd3
001d0efa8b: 1f                               POP DS
001d0efa8c: 2a553f                           SUB DL, [DI+0x3f]
001d0efa8f: 2aaa5f2a                         SUB CH, [BP+SI+0x2a5f]
001d0efa93: aa                               STOSB
001d0efa94: 5f                               POP DI
001d0efa95: 55                               PUSH BP
001d0efa96: aa                               STOSB
001d0efa97: 5f                               POP DI
001d0efa98: 2a555f                           SUB DL, [DI+0x5f]
001d0efa9b: 2aaa5f55                         SUB CH, [BP+SI+0x555f]
001d0efa9f: 55                               PUSH BP
001d0efaa0: 3f                               AAS
001d0efaa1: 2aaa5f55                         SUB CH, [BP+SI+0x555f]
001d0efaa5: aa                               STOSB
001d0efaa6: 3f                               AAS
001d0efaa7: 55                               PUSH BP
001d0efaa8: 55                               PUSH BP
001d0efaa9: 5f                               POP DI
001d0efaaa: 2aaa5f2a                         SUB CH, [BP+SI+0x2a5f]
001d0efaae: 55                               PUSH BP
001d0efaaf: 5f                               POP DI
001d0efab0: 55                               PUSH BP
001d0efab1: aa                               STOSB
001d0efab2: 5f                               POP DI
001d0efab3: 2aaa5f55                         SUB CH, [BP+SI+0x555f]
001d0efab7: 003f                             ADD [BX], BH
001d0efab9: 2a551f                           SUB DL, [DI+0x1f]
001d0efabc: 7f00                             JG 0x106
001d0efabe: 5f                               POP DI
001d0efabf: d455                             AAM 0x55
001d0efac1: 3f                               AAS
001d0efac2: 7f55                             JG 0x161
001d0efac4: 3f                               AAS
001d0efac5: 55                               PUSH BP
001d0efac6: 001f                             ADD [BX], BL
001d0efac8: 55                               PUSH BP
001d0efac9: 55                               PUSH BP
001d0efaca: 3f                               AAS
001d0efacb: 2a553f                           SUB DL, [DI+0x3f]
001d0eface: 55                               PUSH BP
001d0efacf: 003f                             ADD [BX], BH
001d0efad1: 7f55                             JG 0x170
001d0efad3: 3f                               AAS
001d0efad4: 7f55                             JG 0x173
001d0efad6: 5f                               POP DI
001d0efad7: 7f00                             JG 0x121
001d0efad9: 5f                               POP DI
001d0efada: aa                               STOSB
001d0efadb: 55                               PUSH BP
001d0efadc: 5f                               POP DI
001d0efadd: aa                               STOSB
001d0efade: 55                               PUSH BP
001d0efadf: 5f                               POP DI
001d0efae0: aa                               STOSB
001d0efae1: 55                               PUSH BP
001d0efae2: 5f                               POP DI
001d0efae3: aa                               STOSB
001d0efae4: 55                               PUSH BP
001d0efae5: 7fd4                             JG 0x103
001d0efae7: 007fd4                           ADD [BX-0x2c], BH
001d0efaea: e3df                             JCXZ 0x113
001d0efaec: e000                             LOOPNZ 0x136
001d0efaee: 55                               PUSH BP
001d0efaef: 3f                               AAS
001d0efaf0: 7f00                             JG 0x13a
001d0efaf2: 3f                               AAS
001d0efaf3: 7f55                             JG 0x192
001d0efaf5: 3f                               AAS
001d0efaf6: 7f00                             JG 0x140
001d0efaf8: 1f                               POP DS
001d0efaf9: 55                               PUSH BP
001d0efafa: 55                               PUSH BP
001d0efafb: 3f                               AAS
001d0efafc: 55                               PUSH BP
001d0efafd: 55                               PUSH BP
001d0efafe: 3f                               AAS
001d0efaff: 7f55                             JG 0x19e
001d0efb01: 3f                               AAS
001d0efb02: 7f00                             JG 0x14c
001d0efb04: 1f                               POP DS
001d0efb05: 55                               PUSH BP
001d0efb06: 55                               PUSH BP
001d0efb07: 7faa                             JG 0xfb
001d0efb09: 55                               PUSH BP
001d0efb0a: 9f                               LAHF
001d0efb0b: d455                             AAM 0x55
001d0efb0d: 5f                               POP DI
001d0efb0e: aa                               STOSB
001d0efb0f: 55                               PUSH BP
001d0efb10: 3f                               AAS
001d0efb11: aa                               STOSB
001d0efb12: 005f7f                           ADD [BX+0x7f], BL
001d0efb15: 55                               PUSH BP
001d0efb16: 5f                               POP DI
001d0efb17: aa                               STOSB
001d0efb18: 55                               PUSH BP
001d0efb19: 5f                               POP DI
001d0efb1a: 7f55                             JG 0x1b9
001d0efb1c: 5f                               POP DI
001d0efb1d: 7f00                             JG 0x167
001d0efb1f: 3f                               AAS
001d0efb20: aa                               STOSB
001d0efb21: 55                               PUSH BP
001d0efb22: 5f                               POP DI
001d0efb23: 7f55                             JG 0x1c2
001d0efb25: 5f                               POP DI
001d0efb26: 7f55                             JG 0x1c5
001d0efb28: 3f                               AAS
001d0efb29: aa                               STOSB
001d0efb2a: 001f                             ADD [BX], BL
001d0efb2c: 7f00                             JG 0x176
001d0efb2e: 1f                               POP DS
001d0efb2f: 2a808080                         SUB AL, [BX+SI-0x7f80]
001d0efb33: aa                               STOSB
001d0efb34: 9f                               LAHF
001d0efb35: 55                               PUSH BP
001d0efb36: aa                               STOSB
001d0efb37: 5f                               POP DI
001d0efb38: 55                               PUSH BP
001d0efb39: 55                               PUSH BP
001d0efb3a: 5f                               POP DI
001d0efb3b: 55                               PUSH BP
001d0efb3c: aa                               STOSB
001d0efb3d: 5f                               POP DI
001d0efb3e: 2a551f                           SUB DL, [DI+0x1f]
001d0efb41: 2a00                             SUB AL, [BX+SI]
001d0efb43: 3f                               AAS
001d0efb44: 55                               PUSH BP
001d0efb45: 55                               PUSH BP
001d0efb46: 3f                               AAS
001d0efb47: 55                               PUSH BP
001d0efb48: 003f                             ADD [BX], BH
001d0efb4a: 55                               PUSH BP
001d0efb4b: 55                               PUSH BP
001d0efb4c: 3f                               AAS
001d0efb4d: 55                               PUSH BP
001d0efb4e: 001f                             ADD [BX], BL
001d0efb50: 2aaa7f7f                         SUB CH, [BP+SI+0x7f7f]
001d0efb54: 55                               PUSH BP
001d0efb55: 5f                               POP DI
001d0efb56: 55                               PUSH BP
001d0efb57: 55                               PUSH BP
001d0efb58: 5f                               POP DI
001d0efb59: 55                               PUSH BP
001d0efb5a: 55                               PUSH BP
001d0efb5b: 5f                               POP DI
001d0efb5c: 55                               PUSH BP
001d0efb5d: 55                               PUSH BP
001d0efb5e: 3f                               AAS
001d0efb5f: 55                               PUSH BP
001d0efb60: 55                               PUSH BP
001d0efb61: 5f                               POP DI
001d0efb62: 55                               PUSH BP
001d0efb63: 55                               PUSH BP
001d0efb64: 3f                               AAS
001d0efb65: 55                               PUSH BP
001d0efb66: 55                               PUSH BP
001d0efb67: 5f                               POP DI
001d0efb68: 55                               PUSH BP
001d0efb69: 55                               PUSH BP
001d0efb6a: 5f                               POP DI
001d0efb6b: 55                               PUSH BP
001d0efb6c: 55                               PUSH BP
001d0efb6d: 3f                               AAS
001d0efb6e: 55                               PUSH BP
001d0efb6f: 55                               PUSH BP


===== Partition Table #1 =====
Boot flag: 0x1f 
Partition type: 0x80 (Invalid)
Starting Sector (LBA): 0x55aabfaa (1437253546)
Starting CHS: Cylinder: 640 Head: 42 Sector: 0
Ending CHS: Cylinder: 980 Head: 255 Sector: 31
Size in sectors: -0x5f5baaa1 (-1599842977)

===== Partition Table #2 =====
Boot flag: 0xa0 
Partition type: 0xaa (Invalid)
Starting Sector (LBA): 0x8080aabf (2155915967)
Starting CHS: Cylinder: 682 Head: 170 Sector: 63
Ending CHS: Cylinder: 426 Head: 127 Sector: 63
Size in sectors: 0x555f5580 (1432311168)

===== Partition Table #3 =====
Boot flag: 0x80 (Bootable)
Partition type: 0xa0 (Hibernation)
Starting Sector (LBA): 0x2a3f5580 (708793728)
Starting CHS: Cylinder: 676 Head: 128 Sector: 0
Ending CHS: Cylinder: 640 Head: 160 Sector: 0
Size in sectors: -0x55806056 (-1434476630)

===== Partition Table #4 =====
Boot flag: 0x7f 
Partition type: 0x55 (Invalid)
Starting Sector (LBA): 0xaa557faa (2857729962)
Starting CHS: Cylinder: 639 Head: 85 Sector: 42
Ending CHS: Cylinder: 597 Head: 170 Sector: 31
Size in sectors: 0x7faa2a5f (2141858399)

***************************************************************************

***************************************************************************
Potential MBR at physical offset: 0x1ebda119
Disk Signature: 54-00-05-40
Bootcode md5: 8bb59027e4ae0fd7a903dfaa286adbfa
Bootcode (FULL) md5: fa521f0939dd6a19dec15d7e74f1dc52
Disassembly of Bootable Code:
001ebda119: 6b036c                           IMUL AX, [BP+DI], 0x6c
001ebda11c: 0002                             ADD [BP+SI], AL
001ebda11e: 037003                           ADD SI, [BX+SI+0x3]
001ebda121: 7000                             JO 0xa
001ebda123: 0203                             ADD AL, [BP+DI]
001ebda125: 7503                             JNZ 0x11
001ebda127: 7800                             JS 0x10
001ebda129: 0203                             ADD AL, [BP+DI]
001ebda12b: 8503                             TEST [BP+DI], AX
001ebda12d: 8900                             MOV [BX+SI], AX
001ebda12f: 0203                             ADD AL, [BP+DI]
001ebda131: 8a03                             MOV AL, [BP+DI]
001ebda133: 8a00                             MOV AL, [BX+SI]
001ebda135: 0303                             ADD AX, [BP+DI]
001ebda137: 8f03                             POP WORD [BP+DI]
001ebda139: 92                               XCHG DX, AX
001ebda13a: 0002                             ADD [BP+SI], AL
001ebda13c: 039d039e                         ADD BX, [DI-0x61fd]
001ebda140: 0003                             ADD [BP+DI], AL
001ebda142: 039f03a0                         ADD BX, [BX-0x5ffd]
001ebda146: 0002                             ADD [BP+SI], AL
001ebda148: 03a103a2                         ADD SP, [BX+DI-0x5dfd]
001ebda14c: 0003                             ADD [BP+DI], AL
001ebda14e: 03a503a6                         ADD SP, [DI-0x59fd]
001ebda152: 0003                             ADD [BP+DI], AL
001ebda154: 03ad03b2                         ADD BP, [DI-0x4dfd]
001ebda158: 0002                             ADD [BP+SI], AL
001ebda15a: 03b503b6                         ADD SI, [DI-0x49fd]
001ebda15e: 0002                             ADD [BP+SI], AL
001ebda160: 03b903ba                         ADD DI, [BX+DI-0x45fd]
001ebda164: 0002                             ADD [BP+SI], AL
001ebda166: 03bd03be                         ADD DI, [DI-0x41fd]
001ebda16a: 0002                             ADD [BP+SI], AL
001ebda16c: 03c9                             ADD CX, CX
001ebda16e: 03ca                             ADD CX, DX
001ebda170: 0003                             ADD [BP+DI], AL
001ebda172: 03cd                             ADD CX, BP
001ebda174: 03ce                             ADD CX, SI
001ebda176: 0003                             ADD [BP+DI], AL
001ebda178: 03d5                             ADD DX, BP
001ebda17a: 03d6                             ADD DX, SI
001ebda17c: 0002                             ADD [BP+SI], AL
001ebda17e: 03dd                             ADD BX, BP
001ebda180: 03de                             ADD BX, SI
001ebda182: 0002                             ADD [BP+SI], AL
001ebda184: 03e1                             ADD SP, CX
001ebda186: 03e2                             ADD SP, DX
001ebda188: 0003                             ADD [BP+DI], AL
001ebda18a: 03e5                             ADD SP, BP
001ebda18c: 03e6                             ADD SP, SI
001ebda18e: 0002                             ADD [BP+SI], AL
001ebda190: 03ec                             ADD BP, SP
001ebda192: 03ef                             ADD BP, DI
001ebda194: 0002                             ADD [BP+SI], AL
001ebda196: 03f0                             ADD SI, AX
001ebda198: 03f2                             ADD SI, DX
001ebda19a: 0003                             ADD [BP+DI], AL
001ebda19c: 03f3                             ADD SI, BX
001ebda19e: 03f4                             ADD SI, SP
001ebda1a0: 0002                             ADD [BP+SI], AL
001ebda1a2: 03f5                             ADD SI, BP
001ebda1a4: 03fc                             ADD DI, SP
001ebda1a6: 0004                             ADD [SI], AL
001ebda1a8: 0001                             ADD [BX+DI], AL
001ebda1aa: 0001                             ADD [BX+DI], AL
001ebda1ac: 0001                             ADD [BX+DI], AL
001ebda1ae: 0008                             ADD [BX+SI], CL
001ebda1b0: 0002                             ADD [BP+SI], AL
001ebda1b2: 0034                             ADD [SI], DH
001ebda1b4: 0003                             ADD [BP+DI], AL
001ebda1b6: 0415                             ADD AL, 0x15
001ebda1b8: 0414                             ADD AL, 0x14
001ebda1ba: 0413                             ADD AL, 0x13
001ebda1bc: 0001                             ADD [BX+DI], AL
001ebda1be: 0001                             ADD [BX+DI], AL
001ebda1c0: 0001                             ADD [BX+DI], AL
001ebda1c2: 0008                             ADD [BX+SI], CL
001ebda1c4: 0002                             ADD [BP+SI], AL
001ebda1c6: 0020                             ADD [BX+SI], AH
001ebda1c8: 0003                             ADD [BP+DI], AL
001ebda1ca: 042f                             ADD AL, 0x2f
001ebda1cc: 042e                             ADD AL, 0x2e
001ebda1ce: 042d                             ADD AL, 0x2d
001ebda1d0: 0001                             ADD [BX+DI], AL
001ebda1d2: 0001                             ADD [BX+DI], AL
001ebda1d4: 0001                             ADD [BX+DI], AL
001ebda1d6: 0008                             ADD [BX+SI], CL
001ebda1d8: 0002                             ADD [BP+SI], AL
001ebda1da: 000c                             ADD [SI], CL
001ebda1dc: 0003                             ADD [BP+DI], AL
001ebda1de: 0449                             ADD AL, 0x49
001ebda1e0: 0448                             ADD AL, 0x48
001ebda1e2: 0447                             ADD AL, 0x47
001ebda1e4: 0001                             ADD [BX+DI], AL
001ebda1e6: 0003                             ADD [BP+DI], AL
001ebda1e8: 02f3                             ADD DH, BL
001ebda1ea: 02f6                             ADD DH, DH
001ebda1ec: 0313                             ADD DX, [BP+DI]
001ebda1ee: 0000                             ADD [BX+SI], AL
001ebda1f0: 0002                             ADD [BP+SI], AL
001ebda1f2: 0000                             ADD [BX+SI], AL
001ebda1f4: 0301                             ADD AX, [BX+DI]
001ebda1f6: 0103                             ADD [BP+DI], AX
001ebda1f8: 02a00402                         ADD AH, [BX+SI+0x204]
001ebda1fc: 0003                             ADD [BP+DI], AL
001ebda1fe: 026604                           ADD AH, [BP+0x4]
001ebda201: 0200                             ADD AL, [BX+SI]
001ebda203: 0302                             ADD AX, [BP+SI]
001ebda205: 7705                             JA 0xf3
001ebda207: 0101                             ADD [BX+DI], AX
001ebda209: 0403                             ADD AL, 0x3
001ebda20b: a806                             TEST AL, 0x6
001ebda20d: 0300                             ADD AX, [BX+SI]
001ebda20f: 0403                             ADD AL, 0x3
001ebda211: 55                               PUSH BP
001ebda212: 55                               PUSH BP
001ebda213: 40                               INC AX
001ebda214: 06                               PUSH ES
001ebda215: 0300                             ADD AX, [BX+SI]
001ebda217: 0403                             ADD AL, 0x3
001ebda219: 5d                               POP BP
001ebda21a: 75c0                             JNZ 0xc3
001ebda21c: 06                               PUSH ES
001ebda21d: 0301                             ADD AX, [BX+DI]
001ebda21f: 050480                           ADD AX, 0x8004
001ebda222: c0400703                         ROL BYTE [BX+SI+0x7], 0x3
001ebda226: 0105                             ADD [DI], AX
001ebda228: 0430                             ADD AL, 0x30
001ebda22a: c3                               RET

001ebda22b: 08 07 04 00 05 04 5a 5a 5a 50 08 03 01 06 04 30   ......ZZZP.....0
001ebda23b: c3 0c 08 04 00 06 04 5a 5a 5a 5a 08 04 00 06 04   .......ZZZZ.....
001ebda24b: 5f 5f 5f 5f 89 22 48 92 24 aa aa aa aa aa 2f cb   ____."H.$...../.
001ebda25b: f2 fc bf 89 22 48 92 24 89 22 40 aa aa aa aa aa   ...."H.$."@.....
001ebda26b: aa aa a0 57 d5 f5 7d 5f 57 d5 f0 0b 04 01 09 06   ...W..}_W.......
001ebda27b: 90 90 90 90 90 90 0c 06 00 09 06 56 a5 6a 56 a5   ...........V.jV.
001ebda28b: 6a 56 a5 6a 0c 06 00 09 06 57 f5 7f 57 f5 7f 57   jV.j.....W..W..W
001ebda29b: f5 7f 54 02 a8 05 40 2a 80 54 02 a8 05 40 00 55   ..T...@*.T...@.U
001ebda2ab: 55 55 55 55 55 55 55 55 55 55 55 40 55 fd 57 f5   UUUUUUUUUUU@U.W.
001ebda2bb: 5f d5 7f 55 fd 57 f5 5f c0 0d 07 00 0b 07 54 00   _..U.W._......T.
001ebda2cb: 05 50 00 15 00 01                                 .P....

===== Partition Table #1 =====
Boot flag: 0x0 
Partition type: 0xaa (Invalid)
Starting Sector (LBA): 0xaaaaaaaa (2863311530)
Starting CHS: Cylinder: 84 Head: 11 Sector: 7
Ending CHS: Cylinder: 682 Head: 170 Sector: 42
Size in sectors: -0x55555556 (-1431655766)

===== Partition Table #2 =====
Boot flag: 0x80 (Bootable)
Partition type: 0xb (FAT32,CHS)
Starting Sector (LBA): 0x7fe55ff9 (2145738745)
Starting CHS: Cylinder: 0 Head: 15 Sector: 7
Ending CHS: Cylinder: 87 Head: 7 Sector: 42
Size in sectors: -0x6a8016b (-111673707)

===== Partition Table #3 =====
Boot flag: 0x5f 
Partition type: 0x10 (Invalid)
Starting Sector (LBA): 0x8c102308 (2349867784)
Starting CHS: Cylinder: 384 Head: 229 Sector: 63
Ending CHS: Cylinder: 12 Head: 7 Sector: 1
Size in sectors: -0x3bf7cebe (-1006096062)

===== Partition Table #4 =====
Boot flag: 0x23 
Partition type: 0x31 (Invalid)
Starting Sector (LBA): 0x80c0008 (135004168)
Starting CHS: Cylinder: 578 Head: 16 Sector: 12
Ending CHS: Cylinder: 784 Head: 8 Sector: 4
Size in sectors: -0x55aa55ab (-1437226411)

***************************************************************************

